
DraaiSchijfController.elf:     file format elf32-avr

Sections:
Idx Name          Size      VMA       LMA       File off  Algn
  0 .text         00000cac  00000000  00000000  000000b4  2**1
                  CONTENTS, ALLOC, LOAD, READONLY, CODE
  1 .data         00000002  00800060  00000cac  00000d60  2**0
                  CONTENTS, ALLOC, LOAD, DATA
  2 .bss          000000d6  00800062  00800062  00000d62  2**0
                  ALLOC
  3 .eeprom       000000c3  00810000  00810000  00000d62  2**0
                  CONTENTS, ALLOC, LOAD, READONLY, DATA
  4 .stab         000020a0  00000000  00000000  00000e28  2**2
                  CONTENTS, READONLY, DEBUGGING
  5 .stabstr      00001118  00000000  00000000  00002ec8  2**0
                  CONTENTS, READONLY, DEBUGGING
  6 .comment      00000011  00000000  00000000  00003fe0  2**0
                  CONTENTS, READONLY

Disassembly of section .text:

00000000 <__vectors>:
   0:	12 c1       	rjmp	.+548    	; 0x226 <__ctors_end>
   2:	2c c1       	rjmp	.+600    	; 0x25c <__bad_interrupt>
   4:	2b c1       	rjmp	.+598    	; 0x25c <__bad_interrupt>
   6:	2a c1       	rjmp	.+596    	; 0x25c <__bad_interrupt>
   8:	29 c1       	rjmp	.+594    	; 0x25c <__bad_interrupt>
   a:	28 c1       	rjmp	.+592    	; 0x25c <__bad_interrupt>
   c:	27 c1       	rjmp	.+590    	; 0x25c <__bad_interrupt>
   e:	26 c1       	rjmp	.+588    	; 0x25c <__bad_interrupt>
  10:	25 c1       	rjmp	.+586    	; 0x25c <__bad_interrupt>
  12:	24 c1       	rjmp	.+584    	; 0x25c <__bad_interrupt>
  14:	23 c1       	rjmp	.+582    	; 0x25c <__bad_interrupt>
  16:	de c1       	rjmp	.+956    	; 0x3d4 <__vector_11>
  18:	85 c2       	rjmp	.+1290   	; 0x524 <__vector_12>
  1a:	20 c1       	rjmp	.+576    	; 0x25c <__bad_interrupt>
  1c:	8d c2       	rjmp	.+1306   	; 0x538 <__vector_14>
  1e:	1e c1       	rjmp	.+572    	; 0x25c <__bad_interrupt>
  20:	1d c1       	rjmp	.+570    	; 0x25c <__bad_interrupt>
  22:	1c c1       	rjmp	.+568    	; 0x25c <__bad_interrupt>
  24:	1b c1       	rjmp	.+566    	; 0x25c <__bad_interrupt>

00000026 <pulseTabel>:
	...
  3e:	03 00       	.word	0x0003	; ????
  40:	00 00       	nop
  42:	01 00       	.word	0x0001	; ????
  44:	00 00       	nop
  46:	03 00       	.word	0x0003	; ????
  48:	00 00       	nop
  4a:	03 00       	.word	0x0003	; ????
  4c:	00 00       	nop
  4e:	07 00       	.word	0x0007	; ????
  50:	00 00       	nop
  52:	03 00       	.word	0x0003	; ????
  54:	00 00       	nop
  56:	07 00       	.word	0x0007	; ????
  58:	00 00       	nop
  5a:	07 00       	.word	0x0007	; ????
  5c:	00 00       	nop
  5e:	0f 00       	.word	0x000f	; ????
  60:	00 00       	nop
  62:	07 00       	.word	0x0007	; ????
  64:	00 00       	nop
  66:	0f 00       	.word	0x000f	; ????
  68:	00 00       	nop
  6a:	0f 00       	.word	0x000f	; ????
  6c:	00 00       	nop
  6e:	1f 00       	.word	0x001f	; ????
  70:	00 00       	nop
  72:	0f 00       	.word	0x000f	; ????
  74:	00 00       	nop
  76:	1f 00       	.word	0x001f	; ????
  78:	00 00       	nop
  7a:	1f 00       	.word	0x001f	; ????
  7c:	00 00       	nop
  7e:	3f 00       	.word	0x003f	; ????
  80:	00 00       	nop
  82:	1f 00       	.word	0x001f	; ????
  84:	00 00       	nop
  86:	3f 00       	.word	0x003f	; ????
  88:	00 00       	nop
  8a:	3f 00       	.word	0x003f	; ????
  8c:	00 00       	nop
  8e:	7f 00       	.word	0x007f	; ????
  90:	00 00       	nop
  92:	3f 00       	.word	0x003f	; ????
  94:	00 00       	nop
  96:	7f 00       	.word	0x007f	; ????
  98:	00 00       	nop
  9a:	7f 00       	.word	0x007f	; ????
  9c:	00 00       	nop
  9e:	ff 00       	.word	0x00ff	; ????
  a0:	00 00       	nop
  a2:	7f 00       	.word	0x007f	; ????
  a4:	00 00       	nop
  a6:	ff 00       	.word	0x00ff	; ????
  a8:	00 00       	nop
  aa:	ff 00       	.word	0x00ff	; ????
  ac:	00 00       	nop
  ae:	ff 01       	movw	r30, r30
  b0:	00 00       	nop
  b2:	ff 00       	.word	0x00ff	; ????
  b4:	00 00       	nop
  b6:	ff 01       	movw	r30, r30
  b8:	00 00       	nop
  ba:	ff 01       	movw	r30, r30
  bc:	00 00       	nop
  be:	ff 03       	fmulsu	r23, r23
  c0:	00 00       	nop
  c2:	ff 01       	movw	r30, r30
  c4:	00 00       	nop
  c6:	ff 03       	fmulsu	r23, r23
  c8:	00 00       	nop
  ca:	ff 03       	fmulsu	r23, r23
  cc:	00 00       	nop
  ce:	ff 07       	cpc	r31, r31
  d0:	00 00       	nop
  d2:	ff 03       	fmulsu	r23, r23
  d4:	00 00       	nop
  d6:	ff 07       	cpc	r31, r31
  d8:	00 00       	nop
  da:	ff 07       	cpc	r31, r31
  dc:	00 00       	nop
  de:	ff 0f       	add	r31, r31
  e0:	00 00       	nop
  e2:	ff 07       	cpc	r31, r31
  e4:	00 00       	nop
  e6:	ff 0f       	add	r31, r31
  e8:	00 00       	nop
  ea:	ff 0f       	add	r31, r31
  ec:	00 00       	nop
  ee:	ff 1f       	adc	r31, r31
  f0:	00 00       	nop
  f2:	ff 0f       	add	r31, r31
  f4:	00 00       	nop
  f6:	ff 1f       	adc	r31, r31
  f8:	00 00       	nop
  fa:	ff 1f       	adc	r31, r31
  fc:	00 00       	nop
  fe:	ff 3f       	cpi	r31, 0xFF	; 255
 100:	00 00       	nop
 102:	ff 1f       	adc	r31, r31
 104:	00 00       	nop
 106:	ff 3f       	cpi	r31, 0xFF	; 255
 108:	00 00       	nop
 10a:	ff 3f       	cpi	r31, 0xFF	; 255
 10c:	00 00       	nop
 10e:	ff 7f       	andi	r31, 0xFF	; 255
 110:	00 00       	nop
 112:	ff 3f       	cpi	r31, 0xFF	; 255
 114:	00 00       	nop
 116:	ff 7f       	andi	r31, 0xFF	; 255
 118:	00 00       	nop
 11a:	ff 7f       	andi	r31, 0xFF	; 255
 11c:	00 00       	nop
 11e:	ff ff       	.word	0xffff	; ????
 120:	00 00       	nop
 122:	ff 7f       	andi	r31, 0xFF	; 255
 124:	00 00       	nop
 126:	ff ff       	.word	0xffff	; ????
 128:	00 00       	nop
 12a:	ff ff       	.word	0xffff	; ????
 12c:	00 00       	nop
 12e:	ff ff       	.word	0xffff	; ????
 130:	01 00       	.word	0x0001	; ????
 132:	ff ff       	.word	0xffff	; ????
 134:	00 00       	nop
 136:	ff ff       	.word	0xffff	; ????
 138:	01 00       	.word	0x0001	; ????
 13a:	ff ff       	.word	0xffff	; ????
 13c:	01 00       	.word	0x0001	; ????
 13e:	ff ff       	.word	0xffff	; ????
 140:	03 00       	.word	0x0003	; ????
 142:	ff ff       	.word	0xffff	; ????
 144:	01 00       	.word	0x0001	; ????
 146:	ff ff       	.word	0xffff	; ????
 148:	03 00       	.word	0x0003	; ????
 14a:	ff ff       	.word	0xffff	; ????
 14c:	03 00       	.word	0x0003	; ????
 14e:	ff ff       	.word	0xffff	; ????
 150:	07 00       	.word	0x0007	; ????
 152:	ff ff       	.word	0xffff	; ????
 154:	03 00       	.word	0x0003	; ????
 156:	ff ff       	.word	0xffff	; ????
 158:	07 00       	.word	0x0007	; ????
 15a:	ff ff       	.word	0xffff	; ????
 15c:	07 00       	.word	0x0007	; ????
 15e:	ff ff       	.word	0xffff	; ????
 160:	0f 00       	.word	0x000f	; ????
 162:	ff ff       	.word	0xffff	; ????
 164:	07 00       	.word	0x0007	; ????
 166:	ff ff       	.word	0xffff	; ????
 168:	0f 00       	.word	0x000f	; ????
 16a:	ff ff       	.word	0xffff	; ????
 16c:	0f 00       	.word	0x000f	; ????
 16e:	ff ff       	.word	0xffff	; ????
 170:	1f 00       	.word	0x001f	; ????
 172:	ff ff       	.word	0xffff	; ????
 174:	0f 00       	.word	0x000f	; ????
 176:	ff ff       	.word	0xffff	; ????
 178:	1f 00       	.word	0x001f	; ????
 17a:	ff ff       	.word	0xffff	; ????
 17c:	1f 00       	.word	0x001f	; ????
 17e:	ff ff       	.word	0xffff	; ????
 180:	3f 00       	.word	0x003f	; ????
 182:	ff ff       	.word	0xffff	; ????
 184:	1f 00       	.word	0x001f	; ????
 186:	ff ff       	.word	0xffff	; ????
 188:	3f 00       	.word	0x003f	; ????
 18a:	ff ff       	.word	0xffff	; ????
 18c:	3f 00       	.word	0x003f	; ????
 18e:	ff ff       	.word	0xffff	; ????
 190:	7f 00       	.word	0x007f	; ????
 192:	ff ff       	.word	0xffff	; ????
 194:	3f 00       	.word	0x003f	; ????
 196:	ff ff       	.word	0xffff	; ????
 198:	7f 00       	.word	0x007f	; ????
 19a:	ff ff       	.word	0xffff	; ????
 19c:	7f 00       	.word	0x007f	; ????
 19e:	ff ff       	.word	0xffff	; ????
 1a0:	ff 00       	.word	0x00ff	; ????
 1a2:	ff ff       	.word	0xffff	; ????
 1a4:	7f 00       	.word	0x007f	; ????
 1a6:	ff ff       	.word	0xffff	; ????
 1a8:	ff 00       	.word	0x00ff	; ????
 1aa:	ff ff       	.word	0xffff	; ????
 1ac:	ff 00       	.word	0x00ff	; ????
 1ae:	ff ff       	.word	0xffff	; ????
 1b0:	ff 01       	movw	r30, r30
 1b2:	ff ff       	.word	0xffff	; ????
 1b4:	ff 00       	.word	0x00ff	; ????
 1b6:	ff ff       	.word	0xffff	; ????
 1b8:	ff 01       	movw	r30, r30
 1ba:	ff ff       	.word	0xffff	; ????
 1bc:	ff 01       	movw	r30, r30
 1be:	ff ff       	.word	0xffff	; ????
 1c0:	ff 03       	fmulsu	r23, r23
 1c2:	ff ff       	.word	0xffff	; ????
 1c4:	ff 01       	movw	r30, r30
 1c6:	ff ff       	.word	0xffff	; ????
 1c8:	ff 03       	fmulsu	r23, r23
 1ca:	ff ff       	.word	0xffff	; ????
 1cc:	ff 03       	fmulsu	r23, r23
 1ce:	ff ff       	.word	0xffff	; ????
 1d0:	ff 07       	cpc	r31, r31
 1d2:	ff ff       	.word	0xffff	; ????
 1d4:	ff 03       	fmulsu	r23, r23
 1d6:	ff ff       	.word	0xffff	; ????
 1d8:	ff 07       	cpc	r31, r31
 1da:	ff ff       	.word	0xffff	; ????
 1dc:	ff 07       	cpc	r31, r31
 1de:	ff ff       	.word	0xffff	; ????
 1e0:	ff 0f       	add	r31, r31
 1e2:	ff ff       	.word	0xffff	; ????
 1e4:	ff 07       	cpc	r31, r31
 1e6:	ff ff       	.word	0xffff	; ????
 1e8:	ff 0f       	add	r31, r31
 1ea:	ff ff       	.word	0xffff	; ????
 1ec:	ff 0f       	add	r31, r31
 1ee:	ff ff       	.word	0xffff	; ????
 1f0:	ff 1f       	adc	r31, r31
 1f2:	ff ff       	.word	0xffff	; ????
 1f4:	ff 0f       	add	r31, r31
 1f6:	ff ff       	.word	0xffff	; ????
 1f8:	ff 1f       	adc	r31, r31
 1fa:	ff ff       	.word	0xffff	; ????
 1fc:	ff 1f       	adc	r31, r31
 1fe:	ff ff       	.word	0xffff	; ????
 200:	ff 3f       	cpi	r31, 0xFF	; 255
 202:	ff ff       	.word	0xffff	; ????
 204:	ff 1f       	adc	r31, r31
 206:	ff ff       	.word	0xffff	; ????
 208:	ff 3f       	cpi	r31, 0xFF	; 255
 20a:	ff ff       	.word	0xffff	; ????
 20c:	ff 3f       	cpi	r31, 0xFF	; 255
 20e:	ff ff       	.word	0xffff	; ????
 210:	ff 7f       	andi	r31, 0xFF	; 255
 212:	ff ff       	.word	0xffff	; ????
 214:	ff 3f       	cpi	r31, 0xFF	; 255
 216:	ff ff       	.word	0xffff	; ????
 218:	ff 7f       	andi	r31, 0xFF	; 255
 21a:	ff ff       	.word	0xffff	; ????
 21c:	ff 7f       	andi	r31, 0xFF	; 255
 21e:	ff ff       	.word	0xffff	; ????
 220:	ff ff       	.word	0xffff	; ????
 222:	ff ff       	.word	0xffff	; ????
 224:	ff 7f       	andi	r31, 0xFF	; 255

00000226 <__ctors_end>:
 226:	11 24       	eor	r1, r1
 228:	1f be       	out	0x3f, r1	; 63
 22a:	cf e5       	ldi	r28, 0x5F	; 95
 22c:	d4 e0       	ldi	r29, 0x04	; 4
 22e:	de bf       	out	0x3e, r29	; 62
 230:	cd bf       	out	0x3d, r28	; 61

00000232 <__do_copy_data>:
 232:	10 e0       	ldi	r17, 0x00	; 0
 234:	a0 e6       	ldi	r26, 0x60	; 96
 236:	b0 e0       	ldi	r27, 0x00	; 0
 238:	ec ea       	ldi	r30, 0xAC	; 172
 23a:	fc e0       	ldi	r31, 0x0C	; 12
 23c:	02 c0       	rjmp	.+4      	; 0x242 <__do_copy_data+0x10>
 23e:	05 90       	lpm	r0, Z+
 240:	0d 92       	st	X+, r0
 242:	a2 36       	cpi	r26, 0x62	; 98
 244:	b1 07       	cpc	r27, r17
 246:	d9 f7       	brne	.-10     	; 0x23e <__do_copy_data+0xc>

00000248 <__do_clear_bss>:
 248:	11 e0       	ldi	r17, 0x01	; 1
 24a:	a2 e6       	ldi	r26, 0x62	; 98
 24c:	b0 e0       	ldi	r27, 0x00	; 0
 24e:	01 c0       	rjmp	.+2      	; 0x252 <.do_clear_bss_start>

00000250 <.do_clear_bss_loop>:
 250:	1d 92       	st	X+, r1

00000252 <.do_clear_bss_start>:
 252:	a8 33       	cpi	r26, 0x38	; 56
 254:	b1 07       	cpc	r27, r17
 256:	e1 f7       	brne	.-8      	; 0x250 <.do_clear_bss_loop>
 258:	02 d2       	rcall	.+1028   	; 0x65e <main>
 25a:	26 c5       	rjmp	.+2636   	; 0xca8 <_exit>

0000025c <__bad_interrupt>:
 25c:	d1 ce       	rjmp	.-606    	; 0x0 <__vectors>

0000025e <Homing>:
uint8_t huisDecimation;
bool needsHoming = true;

void Homing()
{
    if (doHoming)
 25e:	80 91 33 01 	lds	r24, 0x0133
 262:	88 23       	and	r24, r24
 264:	c1 f0       	breq	.+48     	; 0x296 <Homing+0x38>
    {
        if (PINC & (1<<PC2))
 266:	9a 99       	sbic	0x13, 2	; 19
 268:	17 c0       	rjmp	.+46     	; 0x298 <Homing+0x3a>
            decimateDrempel = 4;
        }
        else
        {
            // klaar
            decimateDrempel = 40;
 26a:	88 e2       	ldi	r24, 0x28	; 40
 26c:	80 93 61 00 	sts	0x0061, r24
            step = stepTabel[0][0];
 270:	80 91 67 00 	lds	r24, 0x0067
 274:	90 91 68 00 	lds	r25, 0x0068
 278:	90 93 64 00 	sts	0x0064, r25
 27c:	80 93 63 00 	sts	0x0063, r24
            if (step>=0)
 280:	80 91 63 00 	lds	r24, 0x0063
 284:	90 91 64 00 	lds	r25, 0x0064
 288:	97 fd       	sbrc	r25, 7
 28a:	13 c0       	rjmp	.+38     	; 0x2b2 <Homing+0x54>
            {
                PORTB &= ~(1<<PB0); //vooruit
 28c:	c0 98       	cbi	0x18, 0	; 24
            else
            {
                PORTB |= (1<<PB0); // terug
                step = -step;
            }
            doHoming = false;
 28e:	10 92 33 01 	sts	0x0133, r1
            needsHoming = false;
 292:	10 92 60 00 	sts	0x0060, r1
 296:	08 95       	ret
{
    if (doHoming)
    {
        if (PINC & (1<<PC2))
        {
            huidigePositie = 0;
 298:	10 92 62 00 	sts	0x0062, r1
            PORTB |= (1<<PB0); // terug
 29c:	c0 9a       	sbi	0x18, 0	; 24
            step = 32000;
 29e:	80 e0       	ldi	r24, 0x00	; 0
 2a0:	9d e7       	ldi	r25, 0x7D	; 125
 2a2:	90 93 64 00 	sts	0x0064, r25
 2a6:	80 93 63 00 	sts	0x0063, r24
            decimateDrempel = 4;
 2aa:	84 e0       	ldi	r24, 0x04	; 4
 2ac:	80 93 61 00 	sts	0x0061, r24
 2b0:	08 95       	ret
            {
                PORTB &= ~(1<<PB0); //vooruit
            }
            else
            {
                PORTB |= (1<<PB0); // terug
 2b2:	c0 9a       	sbi	0x18, 0	; 24
                step = -step;
 2b4:	80 91 63 00 	lds	r24, 0x0063
 2b8:	90 91 64 00 	lds	r25, 0x0064
 2bc:	91 95       	neg	r25
 2be:	81 95       	neg	r24
 2c0:	91 09       	sbc	r25, r1
 2c2:	90 93 64 00 	sts	0x0064, r25
 2c6:	80 93 63 00 	sts	0x0063, r24
 2ca:	e1 cf       	rjmp	.-62     	; 0x28e <Homing+0x30>

000002cc <StepControl>:
uint8_t huisDecimation;
bool needsHoming = true;

void Homing()
{
    if (doHoming)
 2cc:	80 91 33 01 	lds	r24, 0x0133
 2d0:	88 23       	and	r24, r24
 2d2:	c1 f0       	breq	.+48     	; 0x304 <StepControl+0x38>
    {
        if (PINC & (1<<PC2))
 2d4:	9a 99       	sbic	0x13, 2	; 19
 2d6:	5c c0       	rjmp	.+184    	; 0x390 <StepControl+0xc4>
            decimateDrempel = 4;
        }
        else
        {
            // klaar
            decimateDrempel = 40;
 2d8:	88 e2       	ldi	r24, 0x28	; 40
 2da:	80 93 61 00 	sts	0x0061, r24
            step = stepTabel[0][0];
 2de:	80 91 67 00 	lds	r24, 0x0067
 2e2:	90 91 68 00 	lds	r25, 0x0068
 2e6:	90 93 64 00 	sts	0x0064, r25
 2ea:	80 93 63 00 	sts	0x0063, r24
            if (step>=0)
 2ee:	80 91 63 00 	lds	r24, 0x0063
 2f2:	90 91 64 00 	lds	r25, 0x0064
 2f6:	97 fd       	sbrc	r25, 7
 2f8:	60 c0       	rjmp	.+192    	; 0x3ba <StepControl+0xee>
            {
                PORTB &= ~(1<<PB0); //vooruit
 2fa:	c0 98       	cbi	0x18, 0	; 24
            else
            {
                PORTB |= (1<<PB0); // terug
                step = -step;
            }
            doHoming = false;
 2fc:	10 92 33 01 	sts	0x0133, r1
            needsHoming = false;
 300:	10 92 60 00 	sts	0x0060, r1
 304:	90 91 61 00 	lds	r25, 0x0061

void StepControl()
{
    static uint8_t decimate;
    Homing();
    decimate+=1;
 308:	80 91 66 00 	lds	r24, 0x0066
 30c:	8f 5f       	subi	r24, 0xFF	; 255
 30e:	80 93 66 00 	sts	0x0066, r24
    if ((decimate>(decimateDrempel)) && (step!=0))
 312:	98 17       	cp	r25, r24
 314:	30 f4       	brcc	.+12     	; 0x322 <StepControl+0x56>
 316:	80 91 63 00 	lds	r24, 0x0063
 31a:	90 91 64 00 	lds	r25, 0x0064
 31e:	89 2b       	or	r24, r25
 320:	c1 f4       	brne	.+48     	; 0x352 <StepControl+0x86>
        step -= 1;
        PORTB |= (1<<DDB1);
    }

    static uint8_t drempelSturing =0;
    drempelSturing += 1;
 322:	80 91 65 00 	lds	r24, 0x0065
 326:	8f 5f       	subi	r24, 0xFF	; 255
    if (drempelSturing > 250)
 328:	8b 3f       	cpi	r24, 0xFB	; 251
 32a:	20 f1       	brcs	.+72     	; 0x374 <StepControl+0xa8>
    {
        drempelSturing =0;
 32c:	10 92 65 00 	sts	0x0065, r1
        if (step>800)
 330:	80 91 63 00 	lds	r24, 0x0063
 334:	90 91 64 00 	lds	r25, 0x0064
 338:	81 32       	cpi	r24, 0x21	; 33
 33a:	93 40       	sbci	r25, 0x03	; 3
 33c:	fc f4       	brge	.+62     	; 0x37c <StepControl+0xb0>
        {
            decimateDrempel -= (decimateDrempel>=2) ? 1: 0;
        }
        else
        {
            decimateDrempel += (decimateDrempel<30) ? 1: 0;
 33e:	80 91 61 00 	lds	r24, 0x0061
 342:	91 e0       	ldi	r25, 0x01	; 1
 344:	8e 31       	cpi	r24, 0x1E	; 30
 346:	90 f5       	brcc	.+100    	; 0x3ac <StepControl+0xe0>
 348:	89 0f       	add	r24, r25
 34a:	80 93 61 00 	sts	0x0061, r24
        }
    }
    PORTB &= ~(1<<DDB1);
 34e:	c1 98       	cbi	0x18, 1	; 24
 350:	08 95       	ret
    static uint8_t decimate;
    Homing();
    decimate+=1;
    if ((decimate>(decimateDrempel)) && (step!=0))
    {
        decimate=0;
 352:	10 92 66 00 	sts	0x0066, r1
        step -= 1;
 356:	80 91 63 00 	lds	r24, 0x0063
 35a:	90 91 64 00 	lds	r25, 0x0064
 35e:	01 97       	sbiw	r24, 0x01	; 1
 360:	90 93 64 00 	sts	0x0064, r25
 364:	80 93 63 00 	sts	0x0063, r24
        PORTB |= (1<<DDB1);
 368:	c1 9a       	sbi	0x18, 1	; 24
    }

    static uint8_t drempelSturing =0;
    drempelSturing += 1;
 36a:	80 91 65 00 	lds	r24, 0x0065
 36e:	8f 5f       	subi	r24, 0xFF	; 255
    if (drempelSturing > 250)
 370:	8b 3f       	cpi	r24, 0xFB	; 251
 372:	e0 f6       	brcc	.-72     	; 0x32c <StepControl+0x60>
        step -= 1;
        PORTB |= (1<<DDB1);
    }

    static uint8_t drempelSturing =0;
    drempelSturing += 1;
 374:	80 93 65 00 	sts	0x0065, r24
        else
        {
            decimateDrempel += (decimateDrempel<30) ? 1: 0;
        }
    }
    PORTB &= ~(1<<DDB1);
 378:	c1 98       	cbi	0x18, 1	; 24
 37a:	08 95       	ret
    if (drempelSturing > 250)
    {
        drempelSturing =0;
        if (step>800)
        {
            decimateDrempel -= (decimateDrempel>=2) ? 1: 0;
 37c:	80 91 61 00 	lds	r24, 0x0061
 380:	91 e0       	ldi	r25, 0x01	; 1
 382:	82 30       	cpi	r24, 0x02	; 2
 384:	a8 f0       	brcs	.+42     	; 0x3b0 <StepControl+0xe4>
 386:	89 1b       	sub	r24, r25
 388:	80 93 61 00 	sts	0x0061, r24
        else
        {
            decimateDrempel += (decimateDrempel<30) ? 1: 0;
        }
    }
    PORTB &= ~(1<<DDB1);
 38c:	c1 98       	cbi	0x18, 1	; 24
 38e:	08 95       	ret
{
    if (doHoming)
    {
        if (PINC & (1<<PC2))
        {
            huidigePositie = 0;
 390:	10 92 62 00 	sts	0x0062, r1
            PORTB |= (1<<PB0); // terug
 394:	c0 9a       	sbi	0x18, 0	; 24
            step = 32000;
 396:	80 e0       	ldi	r24, 0x00	; 0
 398:	9d e7       	ldi	r25, 0x7D	; 125
 39a:	90 93 64 00 	sts	0x0064, r25
 39e:	80 93 63 00 	sts	0x0063, r24
            decimateDrempel = 4;
 3a2:	84 e0       	ldi	r24, 0x04	; 4
 3a4:	80 93 61 00 	sts	0x0061, r24
 3a8:	94 e0       	ldi	r25, 0x04	; 4
 3aa:	ae cf       	rjmp	.-164    	; 0x308 <StepControl+0x3c>
        {
            decimateDrempel -= (decimateDrempel>=2) ? 1: 0;
        }
        else
        {
            decimateDrempel += (decimateDrempel<30) ? 1: 0;
 3ac:	90 e0       	ldi	r25, 0x00	; 0
 3ae:	cc cf       	rjmp	.-104    	; 0x348 <StepControl+0x7c>
    if (drempelSturing > 250)
    {
        drempelSturing =0;
        if (step>800)
        {
            decimateDrempel -= (decimateDrempel>=2) ? 1: 0;
 3b0:	90 e0       	ldi	r25, 0x00	; 0
 3b2:	89 1b       	sub	r24, r25
 3b4:	80 93 61 00 	sts	0x0061, r24
 3b8:	e9 cf       	rjmp	.-46     	; 0x38c <StepControl+0xc0>
            {
                PORTB &= ~(1<<PB0); //vooruit
            }
            else
            {
                PORTB |= (1<<PB0); // terug
 3ba:	c0 9a       	sbi	0x18, 0	; 24
                step = -step;
 3bc:	80 91 63 00 	lds	r24, 0x0063
 3c0:	90 91 64 00 	lds	r25, 0x0064
 3c4:	91 95       	neg	r25
 3c6:	81 95       	neg	r24
 3c8:	91 09       	sbc	r25, r1
 3ca:	90 93 64 00 	sts	0x0064, r25
 3ce:	80 93 63 00 	sts	0x0063, r24
 3d2:	94 cf       	rjmp	.-216    	; 0x2fc <StepControl+0x30>

000003d4 <__vector_11>:
    }
    PORTB &= ~(1<<DDB1);
}

ISR(USART_RXC_vect)
{
 3d4:	1f 92       	push	r1
 3d6:	0f 92       	push	r0
 3d8:	0f b6       	in	r0, 0x3f	; 63
 3da:	0f 92       	push	r0
 3dc:	11 24       	eor	r1, r1
 3de:	2f 93       	push	r18
 3e0:	3f 93       	push	r19
 3e2:	4f 93       	push	r20
 3e4:	5f 93       	push	r21
 3e6:	6f 93       	push	r22
 3e8:	7f 93       	push	r23
 3ea:	8f 93       	push	r24
 3ec:	9f 93       	push	r25
 3ee:	af 93       	push	r26
 3f0:	bf 93       	push	r27
 3f2:	ef 93       	push	r30
 3f4:	ff 93       	push	r31
 3f6:	cf 93       	push	r28
 3f8:	df 93       	push	r29
 3fa:	00 d0       	rcall	.+0      	; 0x3fc <__vector_11+0x28>
 3fc:	cd b7       	in	r28, 0x3d	; 61
 3fe:	de b7       	in	r29, 0x3e	; 62
    uartData1 = uartData2;
 400:	80 91 32 01 	lds	r24, 0x0132
 404:	80 93 2a 01 	sts	0x012A, r24
    uartData2 = UDR;
 408:	8c b1       	in	r24, 0x0c	; 12
 40a:	80 93 32 01 	sts	0x0132, r24
    if (!inSync)
 40e:	80 91 31 01 	lds	r24, 0x0131
 412:	81 11       	cpse	r24, r1
 414:	22 c0       	rjmp	.+68     	; 0x45a <__vector_11+0x86>
    {
        // out of sync
        // set het brugblok uit
        DDRD &= ~(1<<PD7);
 416:	8f 98       	cbi	0x11, 7	; 17
        PORTD &= ~(1<<PD7);
 418:	97 98       	cbi	0x12, 7	; 18
        if ((uartData1 ==0) && (uartData2==0))
 41a:	80 91 2a 01 	lds	r24, 0x012A
 41e:	81 11       	cpse	r24, r1
 420:	07 c0       	rjmp	.+14     	; 0x430 <__vector_11+0x5c>
 422:	80 91 32 01 	lds	r24, 0x0132
 426:	81 11       	cpse	r24, r1
 428:	03 c0       	rjmp	.+6      	; 0x430 <__vector_11+0x5c>
        {
            // sync gevonden
            byteCount = 2;
 42a:	82 e0       	ldi	r24, 0x02	; 2
 42c:	80 93 27 01 	sts	0x0127, r24
            pulseBreedteCount=0;
            // zit nog iets meer aanvast
        }

    }
}
 430:	0f 90       	pop	r0
 432:	0f 90       	pop	r0
 434:	df 91       	pop	r29
 436:	cf 91       	pop	r28
 438:	ff 91       	pop	r31
 43a:	ef 91       	pop	r30
 43c:	bf 91       	pop	r27
 43e:	af 91       	pop	r26
 440:	9f 91       	pop	r25
 442:	8f 91       	pop	r24
 444:	7f 91       	pop	r23
 446:	6f 91       	pop	r22
 448:	5f 91       	pop	r21
 44a:	4f 91       	pop	r20
 44c:	3f 91       	pop	r19
 44e:	2f 91       	pop	r18
 450:	0f 90       	pop	r0
 452:	0f be       	out	0x3f, r0	; 63
 454:	0f 90       	pop	r0
 456:	1f 90       	pop	r1
 458:	18 95       	reti
        }
    }
    else
    {
        // main programma zet deze op 0 als we 2 bytes bereiken
        byteCount += 1;
 45a:	80 91 27 01 	lds	r24, 0x0127
 45e:	8f 5f       	subi	r24, 0xFF	; 255
 460:	80 93 27 01 	sts	0x0127, r24
        // nu eerst de DA converter starten
        // save de status van het brugblok bij de start van de AD converter
        brugBlokDDR = DDRD;
 464:	81 b3       	in	r24, 0x11	; 17
 466:	80 93 34 01 	sts	0x0134, r24
        ADCSR |= (1<<ADSC); // start de AD conversie de multiplexer word nu niet ingesteld ik neem aan dat die goed staat voor 1 blok
 46a:	36 9a       	sbi	0x06, 6	; 6

        // wacht lus want anders is de adc nog niet klaar met sample hold voordat de uitgang wijzigd.
        // nu 48us voordat de uitgang wijzigd en grogweg 70us nadat de uitgang wijzigd (heb 1.5 adc clock out of 13.5 nodig voor sample hold)
        for (volatile int i=0;i<30;i++);
 46c:	1a 82       	std	Y+2, r1	; 0x02
 46e:	19 82       	std	Y+1, r1	; 0x01
 470:	89 81       	ldd	r24, Y+1	; 0x01
 472:	9a 81       	ldd	r25, Y+2	; 0x02
 474:	4e 97       	sbiw	r24, 0x1e	; 30
 476:	4c f4       	brge	.+18     	; 0x48a <__stack+0x2b>
 478:	89 81       	ldd	r24, Y+1	; 0x01
 47a:	9a 81       	ldd	r25, Y+2	; 0x02
 47c:	01 96       	adiw	r24, 0x01	; 1
 47e:	9a 83       	std	Y+2, r25	; 0x02
 480:	89 83       	std	Y+1, r24	; 0x01
 482:	89 81       	ldd	r24, Y+1	; 0x01
 484:	9a 81       	ldd	r25, Y+2	; 0x02
 486:	4e 97       	sbiw	r24, 0x1e	; 30
 488:	bc f3       	brlt	.-18     	; 0x478 <__stack+0x19>

        StepControl();
 48a:	20 df       	rcall	.-448    	; 0x2cc <StepControl>
        if (middenDetectie)
 48c:	80 91 2d 01 	lds	r24, 0x012D
 490:	88 23       	and	r24, r24
 492:	51 f0       	breq	.+20     	; 0x4a8 <__stack+0x49>
        {
            if ((PINC & (1<<PC3)) == 0)
 494:	9b 99       	sbic	0x13, 3	; 19
 496:	08 c0       	rjmp	.+16     	; 0x4a8 <__stack+0x49>
            {
                // loc detected
                middenDetected = true;
 498:	81 e0       	ldi	r24, 0x01	; 1
 49a:	80 93 2e 01 	sts	0x012E, r24
                snelheid = snelheid &0x80; // onthoud richting
 49e:	80 91 2f 01 	lds	r24, 0x012F
 4a2:	80 78       	andi	r24, 0x80	; 128
 4a4:	80 93 2f 01 	sts	0x012F, r24
            }
        }

        uint8_t snel = (snelheid & 0x40) ? 0: snelheid; // als er kortsluiting is dan 0 gebruiken
 4a8:	80 91 2f 01 	lds	r24, 0x012F
 4ac:	86 ff       	sbrs	r24, 6
 4ae:	32 c0       	rjmp	.+100    	; 0x514 <__stack+0xb5>
 4b0:	e0 e0       	ldi	r30, 0x00	; 0
 4b2:	f0 e0       	ldi	r31, 0x00	; 0
        uint8_t pulse = pgm_read_byte(&pulseTabel[snel&0x3f][pulseBreedteCount>>3]);
 4b4:	80 91 35 01 	lds	r24, 0x0135
 4b8:	ee 0f       	add	r30, r30
 4ba:	ff 1f       	adc	r31, r31
 4bc:	ee 0f       	add	r30, r30
 4be:	ff 1f       	adc	r31, r31
 4c0:	ee 0f       	add	r30, r30
 4c2:	ff 1f       	adc	r31, r31
 4c4:	86 95       	lsr	r24
 4c6:	86 95       	lsr	r24
 4c8:	86 95       	lsr	r24
 4ca:	e8 0f       	add	r30, r24
 4cc:	f1 1d       	adc	r31, r1
 4ce:	ea 5d       	subi	r30, 0xDA	; 218
 4d0:	ff 4f       	sbci	r31, 0xFF	; 255
 4d2:	e4 91       	lpm	r30, Z
        if (pulse & (1<<(pulseBreedteCount&0x7)))
 4d4:	80 91 35 01 	lds	r24, 0x0135
 4d8:	f0 e0       	ldi	r31, 0x00	; 0
 4da:	87 70       	andi	r24, 0x07	; 7
 4dc:	02 c0       	rjmp	.+4      	; 0x4e2 <__stack+0x83>
 4de:	f5 95       	asr	r31
 4e0:	e7 95       	ror	r30
 4e2:	8a 95       	dec	r24
 4e4:	e2 f7       	brpl	.-8      	; 0x4de <__stack+0x7f>
 4e6:	e0 ff       	sbrs	r30, 0
 4e8:	1a c0       	rjmp	.+52     	; 0x51e <__stack+0xbf>
        {
            // moet spanning geleverd worden
            // toevalig zit brugBlok op bit 7 en is riching bepaald door bit 7 in snelheid:)
            PORTD = (snelheid&0x80) | (PORTD&0x7f);
 4ea:	90 91 2f 01 	lds	r25, 0x012F
 4ee:	82 b3       	in	r24, 0x12	; 18
 4f0:	8f 77       	andi	r24, 0x7F	; 127
 4f2:	90 78       	andi	r25, 0x80	; 128
 4f4:	89 2b       	or	r24, r25
 4f6:	82 bb       	out	0x12, r24	; 18
            DDRD |= (1<<DDD7);
 4f8:	8f 9a       	sbi	0x11, 7	; 17
            PORTD &= ~(1<<DDD7);
            DDRD &= ~(1<<DDD7);
        }


        pulseBreedteCount += 1;
 4fa:	80 91 35 01 	lds	r24, 0x0135
 4fe:	8f 5f       	subi	r24, 0xFF	; 255
 500:	80 93 35 01 	sts	0x0135, r24
        if (pulseBreedteCount == AANTAL_PULSEN)
 504:	80 91 35 01 	lds	r24, 0x0135
 508:	8f 33       	cpi	r24, 0x3F	; 63
 50a:	09 f0       	breq	.+2      	; 0x50e <__stack+0xaf>
 50c:	91 cf       	rjmp	.-222    	; 0x430 <__vector_11+0x5c>
        {
            pulseBreedteCount=0;
 50e:	10 92 35 01 	sts	0x0135, r1
 512:	8e cf       	rjmp	.-228    	; 0x430 <__vector_11+0x5c>
                middenDetected = true;
                snelheid = snelheid &0x80; // onthoud richting
            }
        }

        uint8_t snel = (snelheid & 0x40) ? 0: snelheid; // als er kortsluiting is dan 0 gebruiken
 514:	e0 91 2f 01 	lds	r30, 0x012F
 518:	ef 73       	andi	r30, 0x3F	; 63
 51a:	f0 e0       	ldi	r31, 0x00	; 0
 51c:	cb cf       	rjmp	.-106    	; 0x4b4 <__stack+0x55>
            DDRD |= (1<<DDD7);
        }
        else
        {
            // geen spanning dus uitgang zwevend (geen pullup dus port op 0
            PORTD &= ~(1<<DDD7);
 51e:	97 98       	cbi	0x12, 7	; 18
            DDRD &= ~(1<<DDD7);
 520:	8f 98       	cbi	0x11, 7	; 17
 522:	eb cf       	rjmp	.-42     	; 0x4fa <__stack+0x9b>

00000524 <__vector_12>:



// tijdelijk voor testen
ISR(USART_UDRE_vect)
{
 524:	1f 92       	push	r1
 526:	0f 92       	push	r0
 528:	0f b6       	in	r0, 0x3f	; 63
 52a:	0f 92       	push	r0
 52c:	11 24       	eor	r1, r1
//    UDR = 0xf0;
}
 52e:	0f 90       	pop	r0
 530:	0f be       	out	0x3f, r0	; 63
 532:	0f 90       	pop	r0
 534:	1f 90       	pop	r1
 536:	18 95       	reti

00000538 <__vector_14>:


ISR(ADC_vect)
{
 538:	1f 92       	push	r1
 53a:	0f 92       	push	r0
 53c:	0f b6       	in	r0, 0x3f	; 63
 53e:	0f 92       	push	r0
 540:	11 24       	eor	r1, r1
 542:	2f 93       	push	r18
 544:	3f 93       	push	r19
 546:	4f 93       	push	r20
 548:	8f 93       	push	r24
 54a:	9f 93       	push	r25
    // LSB x x x x x x x x
    // waarbij x een AD bit is. Tezien is dat het 16bit getal uit de AD
    // geheel naar beneden is geschaald. Wil ik zodadelijk alleen het MSB
    // uit het filter pakken dan gooi ik bijna alle bitten weg. Dus moet
    // het AD getal met 64 vermenigvuldigd worden
    uint16_t input = ADCL + (ADCH<<8);
 54c:	24 b1       	in	r18, 0x04	; 4
 54e:	85 b1       	in	r24, 0x05	; 5
 550:	90 e0       	ldi	r25, 0x00	; 0
 552:	98 2f       	mov	r25, r24
 554:	88 27       	eor	r24, r24
 556:	82 0f       	add	r24, r18
 558:	91 1d       	adc	r25, r1
    // elk kanaal een appart filter en ook een
    // apart filter voor spanning en geen spanning
    //
    // convert adInput number to a bit mask

    uint16_t output = blokOff;
 55a:	20 91 2b 01 	lds	r18, 0x012B
 55e:	30 91 2c 01 	lds	r19, 0x012C
    if (brugBlokDDR & (1<<DDD7))
 562:	40 91 34 01 	lds	r20, 0x0134
 566:	47 fd       	sbrc	r20, 7
 568:	1f c0       	rjmp	.+62     	; 0x5a8 <__vector_14+0x70>
    // optellen. Bij deze optelling kan een overflow onstaan gelukkig
    // is het filter zo dat ik kan garanderen dat input en output binnen
    // een 16bit word passen dus zal een evetuele tijdelijk overflow in een
    // tussen resultaat geen probleem opleveren.
    //output = input+output - (output>>4);
    output = input+output - (output>>6);
 56a:	82 0f       	add	r24, r18
 56c:	93 1f       	adc	r25, r19
 56e:	00 24       	eor	r0, r0
 570:	22 0f       	add	r18, r18
 572:	33 1f       	adc	r19, r19
 574:	00 1c       	adc	r0, r0
 576:	22 0f       	add	r18, r18
 578:	33 1f       	adc	r19, r19
 57a:	00 1c       	adc	r0, r0
 57c:	23 2f       	mov	r18, r19
 57e:	30 2d       	mov	r19, r0
 580:	82 1b       	sub	r24, r18
 582:	93 0b       	sbc	r25, r19

    if (brugBlokDDR & (1<<DDD7))
 584:	20 91 34 01 	lds	r18, 0x0134
 588:	27 fd       	sbrc	r18, 7
 58a:	13 c0       	rjmp	.+38     	; 0x5b2 <__vector_14+0x7a>
        }
        blokOn = output;
    }
    else
    {
        blokOff = output;
 58c:	90 93 2c 01 	sts	0x012C, r25
 590:	80 93 2b 01 	sts	0x012B, r24
    }
}
 594:	9f 91       	pop	r25
 596:	8f 91       	pop	r24
 598:	4f 91       	pop	r20
 59a:	3f 91       	pop	r19
 59c:	2f 91       	pop	r18
 59e:	0f 90       	pop	r0
 5a0:	0f be       	out	0x3f, r0	; 63
 5a2:	0f 90       	pop	r0
 5a4:	1f 90       	pop	r1
 5a6:	18 95       	reti
    // convert adInput number to a bit mask

    uint16_t output = blokOff;
    if (brugBlokDDR & (1<<DDD7))
    {
        output = blokOn;
 5a8:	20 91 28 01 	lds	r18, 0x0128
 5ac:	30 91 29 01 	lds	r19, 0x0129
 5b0:	dc cf       	rjmp	.-72     	; 0x56a <__vector_14+0x32>
    output = input+output - (output>>6);

    if (brugBlokDDR & (1<<DDD7))
    {
        // blok heeft spanning
        if ((output > LOW_LEVEL_DREMPEL) && (output < HIGH_LEVEL_DREMPEL))
 5b2:	9c 01       	movw	r18, r24
 5b4:	21 50       	subi	r18, 0x01	; 1
 5b6:	36 44       	sbci	r19, 0x46	; 70
 5b8:	2f 3f       	cpi	r18, 0xFF	; 255
 5ba:	32 47       	sbci	r19, 0x72	; 114
 5bc:	30 f4       	brcc	.+12     	; 0x5ca <__vector_14+0x92>
        {
            // spanning binnen low en high dus concludeer ik kortsluiting
            // zet dit blok nu uit
            DDRD &= ~(1<<DDD7);
 5be:	8f 98       	cbi	0x11, 7	; 17
            snelheid |= 0x40;  // zet bit 6 om kortsluiting te melden
 5c0:	20 91 2f 01 	lds	r18, 0x012F
 5c4:	20 64       	ori	r18, 0x40	; 64
 5c6:	20 93 2f 01 	sts	0x012F, r18
        }
        blokOn = output;
 5ca:	90 93 29 01 	sts	0x0129, r25
 5ce:	80 93 28 01 	sts	0x0128, r24
 5d2:	e0 cf       	rjmp	.-64     	; 0x594 <__vector_14+0x5c>

000005d4 <updatePosition>:
    }
}

void updatePosition(int8_t update, bool alternateTable)
{
    stepTabel[huidigePositie][alternateTable] += update;
 5d4:	90 91 62 00 	lds	r25, 0x0062
 5d8:	e9 2f       	mov	r30, r25
 5da:	f0 e0       	ldi	r31, 0x00	; 0
 5dc:	70 e0       	ldi	r23, 0x00	; 0
 5de:	a8 2f       	mov	r26, r24
 5e0:	bb 27       	eor	r27, r27
 5e2:	a7 fd       	sbrc	r26, 7
 5e4:	b0 95       	com	r27
 5e6:	ee 0f       	add	r30, r30
 5e8:	ff 1f       	adc	r31, r31
 5ea:	e6 0f       	add	r30, r22
 5ec:	f7 1f       	adc	r31, r23
 5ee:	ee 0f       	add	r30, r30
 5f0:	ff 1f       	adc	r31, r31
 5f2:	e9 59       	subi	r30, 0x99	; 153
 5f4:	ff 4f       	sbci	r31, 0xFF	; 255
 5f6:	20 81       	ld	r18, Z
 5f8:	31 81       	ldd	r19, Z+1	; 0x01
 5fa:	2a 0f       	add	r18, r26
 5fc:	3b 1f       	adc	r19, r27
 5fe:	31 83       	std	Z+1, r19	; 0x01
 600:	20 83       	st	Z, r18
    if (huidigePositie == 0)
 602:	91 11       	cpse	r25, r1
 604:	13 c0       	rjmp	.+38     	; 0x62c <updatePosition+0x58>
 606:	fb 01       	movw	r30, r22
 608:	ee 0f       	add	r30, r30
 60a:	ff 1f       	adc	r31, r31
 60c:	e5 59       	subi	r30, 0x95	; 149
 60e:	ff 4f       	sbci	r31, 0xFF	; 255
 610:	4f e2       	ldi	r20, 0x2F	; 47
 612:	50 e0       	ldi	r21, 0x00	; 0
    {
        // voor de home position alles tabel entries updaten
        for (int i=1;i<48;i++)
        {
            stepTabel[i][alternateTable] += update;
 614:	20 81       	ld	r18, Z
 616:	31 81       	ldd	r19, Z+1	; 0x01
 618:	2a 0f       	add	r18, r26
 61a:	3b 1f       	adc	r19, r27
 61c:	31 83       	std	Z+1, r19	; 0x01
 61e:	20 83       	st	Z, r18
 620:	41 50       	subi	r20, 0x01	; 1
 622:	51 09       	sbc	r21, r1
 624:	34 96       	adiw	r30, 0x04	; 4
{
    stepTabel[huidigePositie][alternateTable] += update;
    if (huidigePositie == 0)
    {
        // voor de home position alles tabel entries updaten
        for (int i=1;i<48;i++)
 626:	41 15       	cp	r20, r1
 628:	51 05       	cpc	r21, r1
 62a:	a1 f7       	brne	.-24     	; 0x614 <updatePosition+0x40>
        {
            stepTabel[i][alternateTable] += update;
        }
    }
    if (update>=0)
 62c:	87 fd       	sbrc	r24, 7
 62e:	06 c0       	rjmp	.+12     	; 0x63c <updatePosition+0x68>
    {
        PORTB &= ~(1<<PB0);
 630:	c0 98       	cbi	0x18, 0	; 24
        step = update;
 632:	b0 93 64 00 	sts	0x0064, r27
 636:	a0 93 63 00 	sts	0x0063, r26
 63a:	08 95       	ret
    }
    else
    {
        PORTB |= (1<<PB0);
 63c:	c0 9a       	sbi	0x18, 0	; 24
        step = -update;
 63e:	b1 95       	neg	r27
 640:	a1 95       	neg	r26
 642:	b1 09       	sbc	r27, r1
 644:	b0 93 64 00 	sts	0x0064, r27
 648:	a0 93 63 00 	sts	0x0063, r26
 64c:	08 95       	ret

0000064e <huisVerlichting>:
    }
}

void huisVerlichting( bool aan)
{
    if (aan)
 64e:	81 11       	cpse	r24, r1
 650:	02 c0       	rjmp	.+4      	; 0x656 <huisVerlichting+0x8>
    {
        PORTC &= ~(1<<PC4);
        huisDecimation = 0;
    }
    else
        PORTC |= (1<<PC4);
 652:	ac 9a       	sbi	0x15, 4	; 21
 654:	08 95       	ret

void huisVerlichting( bool aan)
{
    if (aan)
    {
        PORTC &= ~(1<<PC4);
 656:	ac 98       	cbi	0x15, 4	; 21
        huisDecimation = 0;
 658:	10 92 30 01 	sts	0x0130, r1
 65c:	08 95       	ret

0000065e <main>:
 65e:	2f 92       	push	r2
 660:	3f 92       	push	r3
 662:	4f 92       	push	r4
 664:	5f 92       	push	r5
 666:	7f 92       	push	r7
 668:	8f 92       	push	r8
 66a:	9f 92       	push	r9
 66c:	af 92       	push	r10
 66e:	bf 92       	push	r11
 670:	cf 92       	push	r12
 672:	df 92       	push	r13
 674:	ef 92       	push	r14
 676:	ff 92       	push	r15
 678:	0f 93       	push	r16
 67a:	1f 93       	push	r17
 67c:	cf 93       	push	r28
 67e:	df 93       	push	r29
 680:	8c e7       	ldi	r24, 0x7C	; 124
 682:	81 bb       	out	0x11, r24	; 17
 684:	82 bb       	out	0x12, r24	; 18
 686:	82 e3       	ldi	r24, 0x32	; 50
 688:	84 bb       	out	0x14, r24	; 20
 68a:	8f e3       	ldi	r24, 0x3F	; 63
 68c:	87 bb       	out	0x17, r24	; 23
 68e:	8c e1       	ldi	r24, 0x1C	; 28
 690:	88 bb       	out	0x18, r24	; 24
 692:	8f e8       	ldi	r24, 0x8F	; 143
 694:	86 b9       	out	0x06, r24	; 6
 696:	07 e6       	ldi	r16, 0x67	; 103
 698:	10 e0       	ldi	r17, 0x00	; 0
 69a:	c3 e0       	ldi	r28, 0x03	; 3
 69c:	d0 e0       	ldi	r29, 0x00	; 0
 69e:	ce 01       	movw	r24, r28
 6a0:	de d2       	rcall	.+1468   	; 0xc5e <__eerd_word_m8>
 6a2:	f8 01       	movw	r30, r16
 6a4:	91 83       	std	Z+1, r25	; 0x01
 6a6:	80 83       	st	Z, r24
 6a8:	ce 01       	movw	r24, r28
 6aa:	02 96       	adiw	r24, 0x02	; 2
 6ac:	d8 d2       	rcall	.+1456   	; 0xc5e <__eerd_word_m8>
 6ae:	f8 01       	movw	r30, r16
 6b0:	93 83       	std	Z+3, r25	; 0x03
 6b2:	82 83       	std	Z+2, r24	; 0x02
 6b4:	24 96       	adiw	r28, 0x04	; 4
 6b6:	0c 5f       	subi	r16, 0xFC	; 252
 6b8:	1f 4f       	sbci	r17, 0xFF	; 255
 6ba:	f0 e0       	ldi	r31, 0x00	; 0
 6bc:	c3 3c       	cpi	r28, 0xC3	; 195
 6be:	df 07       	cpc	r29, r31
 6c0:	71 f7       	brne	.-36     	; 0x69e <main+0x40>
 6c2:	8f e1       	ldi	r24, 0x1F	; 31
 6c4:	89 b9       	out	0x09, r24	; 9
 6c6:	88 e9       	ldi	r24, 0x98	; 152
 6c8:	8a b9       	out	0x0a, r24	; 10
 6ca:	10 92 27 01 	sts	0x0127, r1
 6ce:	8f e7       	ldi	r24, 0x7F	; 127
 6d0:	80 93 36 01 	sts	0x0136, r24
 6d4:	81 e0       	ldi	r24, 0x01	; 1
 6d6:	80 93 32 01 	sts	0x0132, r24
 6da:	80 93 2a 01 	sts	0x012A, r24
 6de:	2a e0       	ldi	r18, 0x0A	; 10
 6e0:	88 e1       	ldi	r24, 0x18	; 24
 6e2:	90 e0       	ldi	r25, 0x00	; 0
 6e4:	0f b6       	in	r0, 0x3f	; 63
 6e6:	f8 94       	cli
 6e8:	a8 95       	wdr
 6ea:	81 bd       	out	0x21, r24	; 33
 6ec:	0f be       	out	0x3f, r0	; 63
 6ee:	21 bd       	out	0x21, r18	; 33
 6f0:	78 94       	sei
 6f2:	ac 98       	cbi	0x15, 4	; 21
 6f4:	10 92 30 01 	sts	0x0130, r1
 6f8:	90 91 36 01 	lds	r25, 0x0136
 6fc:	dd 24       	eor	r13, r13
 6fe:	d3 94       	inc	r13
 700:	22 24       	eor	r2, r2
 702:	23 94       	inc	r2
 704:	31 2c       	mov	r3, r1
 706:	d4 e0       	ldi	r29, 0x04	; 4
 708:	4d 2e       	mov	r4, r29
 70a:	51 2c       	mov	r5, r1
 70c:	12 e0       	ldi	r17, 0x02	; 2
 70e:	e1 2e       	mov	r14, r17
 710:	f1 2c       	mov	r15, r1
 712:	08 e1       	ldi	r16, 0x18	; 24
 714:	70 2e       	mov	r7, r16
 716:	81 2c       	mov	r8, r1
 718:	89 e1       	ldi	r24, 0x19	; 25
 71a:	98 2e       	mov	r9, r24
 71c:	a1 2c       	mov	r10, r1
 71e:	26 ee       	ldi	r18, 0xE6	; 230
 720:	b2 2e       	mov	r11, r18
 722:	3f e7       	ldi	r19, 0x7F	; 127
 724:	c3 2e       	mov	r12, r19
 726:	80 91 27 01 	lds	r24, 0x0127
 72a:	82 30       	cpi	r24, 0x02	; 2
 72c:	e1 f7       	brne	.-8      	; 0x726 <main+0xc8>
 72e:	10 92 27 01 	sts	0x0127, r1
 732:	8f ef       	ldi	r24, 0xFF	; 255
 734:	89 0f       	add	r24, r25
 736:	11 f4       	brne	.+4      	; 0x73c <main+0xde>
 738:	90 e0       	ldi	r25, 0x00	; 0
 73a:	f5 cf       	rjmp	.-22     	; 0x726 <main+0xc8>
 73c:	80 93 36 01 	sts	0x0136, r24
 740:	80 91 2a 01 	lds	r24, 0x012A
 744:	81 11       	cpse	r24, r1
 746:	22 c0       	rjmp	.+68     	; 0x78c <main+0x12e>
 748:	80 91 32 01 	lds	r24, 0x0132
 74c:	81 11       	cpse	r24, r1
 74e:	1e c0       	rjmp	.+60     	; 0x78c <main+0x12e>
 750:	c0 92 36 01 	sts	0x0136, r12
 754:	10 92 35 01 	sts	0x0135, r1
 758:	d0 92 32 01 	sts	0x0132, r13
 75c:	d0 92 2a 01 	sts	0x012A, r13
 760:	d0 92 31 01 	sts	0x0131, r13
 764:	80 91 63 00 	lds	r24, 0x0063
 768:	90 91 64 00 	lds	r25, 0x0064
 76c:	89 2b       	or	r24, r25
 76e:	39 f4       	brne	.+14     	; 0x77e <main+0x120>
 770:	80 91 30 01 	lds	r24, 0x0130
 774:	8f 5f       	subi	r24, 0xFF	; 255
 776:	80 93 30 01 	sts	0x0130, r24
 77a:	8a 3f       	cpi	r24, 0xFA	; 250
 77c:	19 f0       	breq	.+6      	; 0x784 <main+0x126>
 77e:	9f e7       	ldi	r25, 0x7F	; 127
 780:	a8 95       	wdr
 782:	d1 cf       	rjmp	.-94     	; 0x726 <main+0xc8>
 784:	ac 9a       	sbi	0x15, 4	; 21
 786:	90 91 36 01 	lds	r25, 0x0136
 78a:	fa cf       	rjmp	.-12     	; 0x780 <main+0x122>
 78c:	c0 91 2a 01 	lds	r28, 0x012A
 790:	80 91 32 01 	lds	r24, 0x0132
 794:	83 70       	andi	r24, 0x03	; 3
 796:	d0 e0       	ldi	r29, 0x00	; 0
 798:	d8 2b       	or	r29, r24
 79a:	10 91 32 01 	lds	r17, 0x0132
 79e:	16 95       	lsr	r17
 7a0:	16 95       	lsr	r17
 7a2:	80 e0       	ldi	r24, 0x00	; 0
 7a4:	90 e0       	ldi	r25, 0x00	; 0
 7a6:	5b d2       	rcall	.+1206   	; 0xc5e <__eerd_word_m8>
 7a8:	f8 94       	cli
 7aa:	8c 17       	cp	r24, r28
 7ac:	9d 07       	cpc	r25, r29
 7ae:	a9 f0       	breq	.+42     	; 0x7da <main+0x17c>
 7b0:	ac 01       	movw	r20, r24
 7b2:	4f 5f       	subi	r20, 0xFF	; 255
 7b4:	5f 4f       	sbci	r21, 0xFF	; 255
 7b6:	4c 17       	cp	r20, r28
 7b8:	5d 07       	cpc	r21, r29
 7ba:	09 f4       	brne	.+2      	; 0x7be <main+0x160>
 7bc:	69 c0       	rjmp	.+210    	; 0x890 <main+0x232>
 7be:	ac 01       	movw	r20, r24
 7c0:	4e 5f       	subi	r20, 0xFE	; 254
 7c2:	5f 4f       	sbci	r21, 0xFF	; 255
 7c4:	03 96       	adiw	r24, 0x03	; 3
 7c6:	4c 17       	cp	r20, r28
 7c8:	5d 07       	cpc	r21, r29
 7ca:	d9 f0       	breq	.+54     	; 0x802 <main+0x1a4>
 7cc:	8c 17       	cp	r24, r28
 7ce:	9d 07       	cpc	r25, r29
 7d0:	c1 f0       	breq	.+48     	; 0x802 <main+0x1a4>
 7d2:	78 94       	sei
 7d4:	90 91 36 01 	lds	r25, 0x0136
 7d8:	a6 cf       	rjmp	.-180    	; 0x726 <main+0xc8>
 7da:	11 30       	cpi	r17, 0x01	; 1
 7dc:	09 f4       	brne	.+2      	; 0x7e0 <main+0x182>
 7de:	99 c0       	rjmp	.+306    	; 0x912 <main+0x2b4>
 7e0:	12 30       	cpi	r17, 0x02	; 2
 7e2:	09 f4       	brne	.+2      	; 0x7e6 <main+0x188>
 7e4:	c3 c0       	rjmp	.+390    	; 0x96c <main+0x30e>
 7e6:	1d 33       	cpi	r17, 0x3D	; 61
 7e8:	08 f4       	brcc	.+2      	; 0x7ec <main+0x18e>
 7ea:	a2 c0       	rjmp	.+324    	; 0x930 <main+0x2d2>
 7ec:	80 91 2f 01 	lds	r24, 0x012F
 7f0:	86 fd       	sbrc	r24, 6
 7f2:	d6 c0       	rjmp	.+428    	; 0x9a0 <main+0x342>
 7f4:	80 91 2b 01 	lds	r24, 0x012B
 7f8:	90 91 2c 01 	lds	r25, 0x012C
 7fc:	89 2f       	mov	r24, r25
 7fe:	8c b9       	out	0x0c, r24	; 12
 800:	e8 cf       	rjmp	.-48     	; 0x7d2 <main+0x174>
 802:	61 e0       	ldi	r22, 0x01	; 1
 804:	c8 17       	cp	r28, r24
 806:	d9 07       	cpc	r29, r25
 808:	09 f0       	breq	.+2      	; 0x80c <main+0x1ae>
 80a:	60 e0       	ldi	r22, 0x00	; 0
 80c:	ac 98       	cbi	0x15, 4	; 21
 80e:	10 92 30 01 	sts	0x0130, r1
 812:	1d 33       	cpi	r17, 0x3D	; 61
 814:	08 f4       	brcc	.+2      	; 0x818 <main+0x1ba>
 816:	4c c0       	rjmp	.+152    	; 0x8b0 <main+0x252>
 818:	11 33       	cpi	r17, 0x31	; 49
 81a:	09 f4       	brne	.+2      	; 0x81e <main+0x1c0>
 81c:	51 c1       	rjmp	.+674    	; 0xac0 <main+0x462>
 81e:	12 33       	cpi	r17, 0x32	; 50
 820:	09 f4       	brne	.+2      	; 0x824 <main+0x1c6>
 822:	34 c1       	rjmp	.+616    	; 0xa8c <main+0x42e>
 824:	13 33       	cpi	r17, 0x33	; 51
 826:	09 f4       	brne	.+2      	; 0x82a <main+0x1cc>
 828:	f0 c0       	rjmp	.+480    	; 0xa0a <main+0x3ac>
 82a:	14 33       	cpi	r17, 0x34	; 52
 82c:	09 f4       	brne	.+2      	; 0x830 <main+0x1d2>
 82e:	d3 c0       	rjmp	.+422    	; 0x9d6 <main+0x378>
 830:	15 33       	cpi	r17, 0x35	; 53
 832:	09 f4       	brne	.+2      	; 0x836 <main+0x1d8>
 834:	bd c1       	rjmp	.+890    	; 0xbb0 <main+0x552>
 836:	16 33       	cpi	r17, 0x36	; 54
 838:	09 f4       	brne	.+2      	; 0x83c <main+0x1de>
 83a:	b7 c1       	rjmp	.+878    	; 0xbaa <main+0x54c>
 83c:	17 33       	cpi	r17, 0x37	; 55
 83e:	09 f4       	brne	.+2      	; 0x842 <main+0x1e4>
 840:	c3 c1       	rjmp	.+902    	; 0xbc8 <main+0x56a>
 842:	18 33       	cpi	r17, 0x38	; 56
 844:	09 f4       	brne	.+2      	; 0x848 <main+0x1ea>
 846:	bd c1       	rjmp	.+890    	; 0xbc2 <main+0x564>
 848:	19 33       	cpi	r17, 0x39	; 57
 84a:	09 f4       	brne	.+2      	; 0x84e <main+0x1f0>
 84c:	b7 c1       	rjmp	.+878    	; 0xbbc <main+0x55e>
 84e:	1a 33       	cpi	r17, 0x3A	; 58
 850:	09 f4       	brne	.+2      	; 0x854 <main+0x1f6>
 852:	b1 c1       	rjmp	.+866    	; 0xbb6 <main+0x558>
 854:	1b 33       	cpi	r17, 0x3B	; 59
 856:	09 f4       	brne	.+2      	; 0x85a <main+0x1fc>
 858:	ff c1       	rjmp	.+1022   	; 0xc58 <main+0x5fa>
 85a:	1c 33       	cpi	r17, 0x3C	; 60
 85c:	09 f4       	brne	.+2      	; 0x860 <main+0x202>
 85e:	f3 c1       	rjmp	.+998    	; 0xc46 <main+0x5e8>
 860:	1d 33       	cpi	r17, 0x3D	; 61
 862:	09 f4       	brne	.+2      	; 0x866 <main+0x208>
 864:	ed c1       	rjmp	.+986    	; 0xc40 <main+0x5e2>
 866:	1e 33       	cpi	r17, 0x3E	; 62
 868:	09 f4       	brne	.+2      	; 0x86c <main+0x20e>
 86a:	b1 c1       	rjmp	.+866    	; 0xbce <main+0x570>
 86c:	80 91 63 00 	lds	r24, 0x0063
 870:	90 91 64 00 	lds	r25, 0x0064
 874:	30 91 2e 01 	lds	r19, 0x012E
 878:	20 91 60 00 	lds	r18, 0x0060
 87c:	22 0f       	add	r18, r18
 87e:	23 0f       	add	r18, r19
 880:	22 0f       	add	r18, r18
 882:	31 e0       	ldi	r19, 0x01	; 1
 884:	89 2b       	or	r24, r25
 886:	09 f4       	brne	.+2      	; 0x88a <main+0x22c>
 888:	30 e0       	ldi	r19, 0x00	; 0
 88a:	23 0f       	add	r18, r19
 88c:	2c b9       	out	0x0c, r18	; 12
 88e:	a1 cf       	rjmp	.-190    	; 0x7d2 <main+0x174>
 890:	1f 33       	cpi	r17, 0x3F	; 63
 892:	09 f4       	brne	.+2      	; 0x896 <main+0x238>
 894:	68 c0       	rjmp	.+208    	; 0x966 <main+0x308>
 896:	1e 33       	cpi	r17, 0x3E	; 62
 898:	09 f4       	brne	.+2      	; 0x89c <main+0x23e>
 89a:	7f c0       	rjmp	.+254    	; 0x99a <main+0x33c>
 89c:	82 b3       	in	r24, 0x12	; 18
 89e:	21 2f       	mov	r18, r17
 8a0:	2f 71       	andi	r18, 0x1F	; 31
 8a2:	22 0f       	add	r18, r18
 8a4:	22 0f       	add	r18, r18
 8a6:	83 78       	andi	r24, 0x83	; 131
 8a8:	28 2b       	or	r18, r24
 8aa:	22 bb       	out	0x12, r18	; 18
 8ac:	1c b8       	out	0x0c, r1	; 12
 8ae:	91 cf       	rjmp	.-222    	; 0x7d2 <main+0x174>
 8b0:	78 ba       	out	0x18, r7	; 24
 8b2:	10 33       	cpi	r17, 0x30	; 48
 8b4:	08 f0       	brcs	.+2      	; 0x8b8 <main+0x25a>
 8b6:	48 c1       	rjmp	.+656    	; 0xb48 <main+0x4ea>
 8b8:	30 91 62 00 	lds	r19, 0x0062
 8bc:	31 17       	cp	r19, r17
 8be:	b1 f2       	breq	.-84     	; 0x86c <main+0x20e>
 8c0:	e1 2f       	mov	r30, r17
 8c2:	f0 e0       	ldi	r31, 0x00	; 0
 8c4:	ee 0f       	add	r30, r30
 8c6:	ff 1f       	adc	r31, r31
 8c8:	e6 0f       	add	r30, r22
 8ca:	f1 1d       	adc	r31, r1
 8cc:	ee 0f       	add	r30, r30
 8ce:	ff 1f       	adc	r31, r31
 8d0:	e9 59       	subi	r30, 0x99	; 153
 8d2:	ff 4f       	sbci	r31, 0xFF	; 255
 8d4:	80 81       	ld	r24, Z
 8d6:	91 81       	ldd	r25, Z+1	; 0x01
 8d8:	e3 2f       	mov	r30, r19
 8da:	f0 e0       	ldi	r31, 0x00	; 0
 8dc:	40 91 37 01 	lds	r20, 0x0137
 8e0:	ee 0f       	add	r30, r30
 8e2:	ff 1f       	adc	r31, r31
 8e4:	e4 0f       	add	r30, r20
 8e6:	f1 1d       	adc	r31, r1
 8e8:	ee 0f       	add	r30, r30
 8ea:	ff 1f       	adc	r31, r31
 8ec:	e9 59       	subi	r30, 0x99	; 153
 8ee:	ff 4f       	sbci	r31, 0xFF	; 255
 8f0:	40 81       	ld	r20, Z
 8f2:	51 81       	ldd	r21, Z+1	; 0x01
 8f4:	31 17       	cp	r19, r17
 8f6:	08 f0       	brcs	.+2      	; 0x8fa <main+0x29c>
 8f8:	48 c0       	rjmp	.+144    	; 0x98a <main+0x32c>
 8fa:	c0 98       	cbi	0x18, 0	; 24
 8fc:	84 1b       	sub	r24, r20
 8fe:	95 0b       	sbc	r25, r21
 900:	90 93 64 00 	sts	0x0064, r25
 904:	80 93 63 00 	sts	0x0063, r24
 908:	10 93 62 00 	sts	0x0062, r17
 90c:	60 93 37 01 	sts	0x0137, r22
 910:	ad cf       	rjmp	.-166    	; 0x86c <main+0x20e>
 912:	80 91 2f 01 	lds	r24, 0x012F
 916:	80 68       	ori	r24, 0x80	; 128
 918:	80 93 2f 01 	sts	0x012F, r24
 91c:	80 91 28 01 	lds	r24, 0x0128
 920:	90 91 29 01 	lds	r25, 0x0129
 924:	9c b9       	out	0x0c, r25	; 12
 926:	b0 92 29 01 	sts	0x0129, r11
 92a:	a0 92 28 01 	sts	0x0128, r10
 92e:	51 cf       	rjmp	.-350    	; 0x7d2 <main+0x174>
 930:	11 11       	cpse	r17, r1
 932:	39 c0       	rjmp	.+114    	; 0x9a6 <main+0x348>
 934:	80 91 2b 01 	lds	r24, 0x012B
 938:	90 91 2c 01 	lds	r25, 0x012C
 93c:	9c b9       	out	0x0c, r25	; 12
 93e:	80 91 2f 01 	lds	r24, 0x012F
 942:	80 78       	andi	r24, 0x80	; 128
 944:	80 93 2f 01 	sts	0x012F, r24
 948:	10 92 2e 01 	sts	0x012E, r1
 94c:	10 92 2d 01 	sts	0x012D, r1
 950:	80 91 2f 01 	lds	r24, 0x012F
 954:	87 fd       	sbrc	r24, 7
 956:	3c c0       	rjmp	.+120    	; 0x9d0 <main+0x372>
 958:	80 e0       	ldi	r24, 0x00	; 0
 95a:	99 e1       	ldi	r25, 0x19	; 25
 95c:	90 93 29 01 	sts	0x0129, r25
 960:	80 93 28 01 	sts	0x0128, r24
 964:	36 cf       	rjmp	.-404    	; 0x7d2 <main+0x174>
 966:	a9 9a       	sbi	0x15, 1	; 21
 968:	1c b8       	out	0x0c, r1	; 12
 96a:	33 cf       	rjmp	.-410    	; 0x7d2 <main+0x174>
 96c:	80 91 2f 01 	lds	r24, 0x012F
 970:	8f 77       	andi	r24, 0x7F	; 127
 972:	80 93 2f 01 	sts	0x012F, r24
 976:	80 91 28 01 	lds	r24, 0x0128
 97a:	90 91 29 01 	lds	r25, 0x0129
 97e:	9c b9       	out	0x0c, r25	; 12
 980:	90 92 29 01 	sts	0x0129, r9
 984:	80 92 28 01 	sts	0x0128, r8
 988:	24 cf       	rjmp	.-440    	; 0x7d2 <main+0x174>
 98a:	c0 9a       	sbi	0x18, 0	; 24
 98c:	48 1b       	sub	r20, r24
 98e:	59 0b       	sbc	r21, r25
 990:	50 93 64 00 	sts	0x0064, r21
 994:	40 93 63 00 	sts	0x0063, r20
 998:	b7 cf       	rjmp	.-146    	; 0x908 <main+0x2aa>
 99a:	a9 98       	cbi	0x15, 1	; 21
 99c:	1c b8       	out	0x0c, r1	; 12
 99e:	19 cf       	rjmp	.-462    	; 0x7d2 <main+0x174>
 9a0:	80 e0       	ldi	r24, 0x00	; 0
 9a2:	8c b9       	out	0x0c, r24	; 12
 9a4:	16 cf       	rjmp	.-468    	; 0x7d2 <main+0x174>
 9a6:	80 91 2f 01 	lds	r24, 0x012F
 9aa:	86 fd       	sbrc	r24, 6
 9ac:	cb c0       	rjmp	.+406    	; 0xb44 <main+0x4e6>
 9ae:	80 91 2b 01 	lds	r24, 0x012B
 9b2:	90 91 2c 01 	lds	r25, 0x012C
 9b6:	89 2f       	mov	r24, r25
 9b8:	8c b9       	out	0x0c, r24	; 12
 9ba:	80 91 2e 01 	lds	r24, 0x012E
 9be:	81 11       	cpse	r24, r1
 9c0:	08 cf       	rjmp	.-496    	; 0x7d2 <main+0x174>
 9c2:	80 91 2f 01 	lds	r24, 0x012F
 9c6:	80 7c       	andi	r24, 0xC0	; 192
 9c8:	81 2b       	or	r24, r17
 9ca:	80 93 2f 01 	sts	0x012F, r24
 9ce:	01 cf       	rjmp	.-510    	; 0x7d2 <main+0x174>
 9d0:	80 e0       	ldi	r24, 0x00	; 0
 9d2:	96 ee       	ldi	r25, 0xE6	; 230
 9d4:	c3 cf       	rjmp	.-122    	; 0x95c <main+0x2fe>
 9d6:	20 91 62 00 	lds	r18, 0x0062
 9da:	e2 2f       	mov	r30, r18
 9dc:	f0 e0       	ldi	r31, 0x00	; 0
 9de:	70 e0       	ldi	r23, 0x00	; 0
 9e0:	ee 0f       	add	r30, r30
 9e2:	ff 1f       	adc	r31, r31
 9e4:	e6 0f       	add	r30, r22
 9e6:	f7 1f       	adc	r31, r23
 9e8:	ee 0f       	add	r30, r30
 9ea:	ff 1f       	adc	r31, r31
 9ec:	e9 59       	subi	r30, 0x99	; 153
 9ee:	ff 4f       	sbci	r31, 0xFF	; 255
 9f0:	80 81       	ld	r24, Z
 9f2:	91 81       	ldd	r25, Z+1	; 0x01
 9f4:	04 96       	adiw	r24, 0x04	; 4
 9f6:	91 83       	std	Z+1, r25	; 0x01
 9f8:	80 83       	st	Z, r24
 9fa:	22 23       	and	r18, r18
 9fc:	01 f1       	breq	.+64     	; 0xa3e <main+0x3e0>
 9fe:	c0 98       	cbi	0x18, 0	; 24
 a00:	50 92 64 00 	sts	0x0064, r5
 a04:	40 92 63 00 	sts	0x0063, r4
 a08:	31 cf       	rjmp	.-414    	; 0x86c <main+0x20e>
 a0a:	20 91 62 00 	lds	r18, 0x0062
 a0e:	e2 2f       	mov	r30, r18
 a10:	f0 e0       	ldi	r31, 0x00	; 0
 a12:	70 e0       	ldi	r23, 0x00	; 0
 a14:	ee 0f       	add	r30, r30
 a16:	ff 1f       	adc	r31, r31
 a18:	e6 0f       	add	r30, r22
 a1a:	f7 1f       	adc	r31, r23
 a1c:	ee 0f       	add	r30, r30
 a1e:	ff 1f       	adc	r31, r31
 a20:	e9 59       	subi	r30, 0x99	; 153
 a22:	ff 4f       	sbci	r31, 0xFF	; 255
 a24:	80 81       	ld	r24, Z
 a26:	91 81       	ldd	r25, Z+1	; 0x01
 a28:	02 97       	sbiw	r24, 0x02	; 2
 a2a:	91 83       	std	Z+1, r25	; 0x01
 a2c:	80 83       	st	Z, r24
 a2e:	22 23       	and	r18, r18
 a30:	c9 f0       	breq	.+50     	; 0xa64 <main+0x406>
 a32:	c0 9a       	sbi	0x18, 0	; 24
 a34:	f0 92 64 00 	sts	0x0064, r15
 a38:	e0 92 63 00 	sts	0x0063, r14
 a3c:	17 cf       	rjmp	.-466    	; 0x86c <main+0x20e>
 a3e:	fb 01       	movw	r30, r22
 a40:	32 96       	adiw	r30, 0x02	; 2
 a42:	ee 0f       	add	r30, r30
 a44:	ff 1f       	adc	r31, r31
 a46:	e9 59       	subi	r30, 0x99	; 153
 a48:	ff 4f       	sbci	r31, 0xFF	; 255
 a4a:	8f e2       	ldi	r24, 0x2F	; 47
 a4c:	90 e0       	ldi	r25, 0x00	; 0
 a4e:	20 81       	ld	r18, Z
 a50:	31 81       	ldd	r19, Z+1	; 0x01
 a52:	2c 5f       	subi	r18, 0xFC	; 252
 a54:	3f 4f       	sbci	r19, 0xFF	; 255
 a56:	31 83       	std	Z+1, r19	; 0x01
 a58:	20 83       	st	Z, r18
 a5a:	01 97       	sbiw	r24, 0x01	; 1
 a5c:	34 96       	adiw	r30, 0x04	; 4
 a5e:	00 97       	sbiw	r24, 0x00	; 0
 a60:	b1 f7       	brne	.-20     	; 0xa4e <main+0x3f0>
 a62:	cd cf       	rjmp	.-102    	; 0x9fe <main+0x3a0>
 a64:	fb 01       	movw	r30, r22
 a66:	32 96       	adiw	r30, 0x02	; 2
 a68:	ee 0f       	add	r30, r30
 a6a:	ff 1f       	adc	r31, r31
 a6c:	e9 59       	subi	r30, 0x99	; 153
 a6e:	ff 4f       	sbci	r31, 0xFF	; 255
 a70:	81 e0       	ldi	r24, 0x01	; 1
 a72:	90 e0       	ldi	r25, 0x00	; 0
 a74:	20 81       	ld	r18, Z
 a76:	31 81       	ldd	r19, Z+1	; 0x01
 a78:	22 50       	subi	r18, 0x02	; 2
 a7a:	31 09       	sbc	r19, r1
 a7c:	31 83       	std	Z+1, r19	; 0x01
 a7e:	20 83       	st	Z, r18
 a80:	01 96       	adiw	r24, 0x01	; 1
 a82:	34 96       	adiw	r30, 0x04	; 4
 a84:	80 33       	cpi	r24, 0x30	; 48
 a86:	91 05       	cpc	r25, r1
 a88:	a9 f7       	brne	.-22     	; 0xa74 <main+0x416>
 a8a:	d3 cf       	rjmp	.-90     	; 0xa32 <main+0x3d4>
 a8c:	20 91 62 00 	lds	r18, 0x0062
 a90:	e2 2f       	mov	r30, r18
 a92:	f0 e0       	ldi	r31, 0x00	; 0
 a94:	70 e0       	ldi	r23, 0x00	; 0
 a96:	ee 0f       	add	r30, r30
 a98:	ff 1f       	adc	r31, r31
 a9a:	e6 0f       	add	r30, r22
 a9c:	f7 1f       	adc	r31, r23
 a9e:	ee 0f       	add	r30, r30
 aa0:	ff 1f       	adc	r31, r31
 aa2:	e9 59       	subi	r30, 0x99	; 153
 aa4:	ff 4f       	sbci	r31, 0xFF	; 255
 aa6:	80 81       	ld	r24, Z
 aa8:	91 81       	ldd	r25, Z+1	; 0x01
 aaa:	02 96       	adiw	r24, 0x02	; 2
 aac:	91 83       	std	Z+1, r25	; 0x01
 aae:	80 83       	st	Z, r24
 ab0:	22 23       	and	r18, r18
 ab2:	09 f1       	breq	.+66     	; 0xaf6 <main+0x498>
 ab4:	c0 98       	cbi	0x18, 0	; 24
 ab6:	f0 92 64 00 	sts	0x0064, r15
 aba:	e0 92 63 00 	sts	0x0063, r14
 abe:	d6 ce       	rjmp	.-596    	; 0x86c <main+0x20e>
 ac0:	20 91 62 00 	lds	r18, 0x0062
 ac4:	a2 2f       	mov	r26, r18
 ac6:	b0 e0       	ldi	r27, 0x00	; 0
 ac8:	70 e0       	ldi	r23, 0x00	; 0
 aca:	aa 0f       	add	r26, r26
 acc:	bb 1f       	adc	r27, r27
 ace:	a6 0f       	add	r26, r22
 ad0:	b7 1f       	adc	r27, r23
 ad2:	aa 0f       	add	r26, r26
 ad4:	bb 1f       	adc	r27, r27
 ad6:	a9 59       	subi	r26, 0x99	; 153
 ad8:	bf 4f       	sbci	r27, 0xFF	; 255
 ada:	8d 91       	ld	r24, X+
 adc:	9c 91       	ld	r25, X
 ade:	11 97       	sbiw	r26, 0x01	; 1
 ae0:	01 97       	sbiw	r24, 0x01	; 1
 ae2:	8d 93       	st	X+, r24
 ae4:	9c 93       	st	X, r25
 ae6:	22 23       	and	r18, r18
 ae8:	c9 f0       	breq	.+50     	; 0xb1c <main+0x4be>
 aea:	c0 9a       	sbi	0x18, 0	; 24
 aec:	30 92 64 00 	sts	0x0064, r3
 af0:	20 92 63 00 	sts	0x0063, r2
 af4:	bb ce       	rjmp	.-650    	; 0x86c <main+0x20e>
 af6:	fb 01       	movw	r30, r22
 af8:	32 96       	adiw	r30, 0x02	; 2
 afa:	ee 0f       	add	r30, r30
 afc:	ff 1f       	adc	r31, r31
 afe:	e9 59       	subi	r30, 0x99	; 153
 b00:	ff 4f       	sbci	r31, 0xFF	; 255
 b02:	8f e2       	ldi	r24, 0x2F	; 47
 b04:	90 e0       	ldi	r25, 0x00	; 0
 b06:	20 81       	ld	r18, Z
 b08:	31 81       	ldd	r19, Z+1	; 0x01
 b0a:	2e 5f       	subi	r18, 0xFE	; 254
 b0c:	3f 4f       	sbci	r19, 0xFF	; 255
 b0e:	31 83       	std	Z+1, r19	; 0x01
 b10:	20 83       	st	Z, r18
 b12:	01 97       	sbiw	r24, 0x01	; 1
 b14:	34 96       	adiw	r30, 0x04	; 4
 b16:	00 97       	sbiw	r24, 0x00	; 0
 b18:	b1 f7       	brne	.-20     	; 0xb06 <main+0x4a8>
 b1a:	cc cf       	rjmp	.-104    	; 0xab4 <main+0x456>
 b1c:	fb 01       	movw	r30, r22
 b1e:	32 96       	adiw	r30, 0x02	; 2
 b20:	ee 0f       	add	r30, r30
 b22:	ff 1f       	adc	r31, r31
 b24:	e9 59       	subi	r30, 0x99	; 153
 b26:	ff 4f       	sbci	r31, 0xFF	; 255
 b28:	2f e2       	ldi	r18, 0x2F	; 47
 b2a:	30 e0       	ldi	r19, 0x00	; 0
 b2c:	80 81       	ld	r24, Z
 b2e:	91 81       	ldd	r25, Z+1	; 0x01
 b30:	01 97       	sbiw	r24, 0x01	; 1
 b32:	91 83       	std	Z+1, r25	; 0x01
 b34:	80 83       	st	Z, r24
 b36:	21 50       	subi	r18, 0x01	; 1
 b38:	31 09       	sbc	r19, r1
 b3a:	34 96       	adiw	r30, 0x04	; 4
 b3c:	21 15       	cp	r18, r1
 b3e:	31 05       	cpc	r19, r1
 b40:	a9 f7       	brne	.-22     	; 0xb2c <main+0x4ce>
 b42:	d3 cf       	rjmp	.-90     	; 0xaea <main+0x48c>
 b44:	80 e0       	ldi	r24, 0x00	; 0
 b46:	38 cf       	rjmp	.-400    	; 0x9b8 <main+0x35a>
 b48:	10 33       	cpi	r17, 0x30	; 48
 b4a:	09 f0       	breq	.+2      	; 0xb4e <main+0x4f0>
 b4c:	65 ce       	rjmp	.-822    	; 0x818 <main+0x1ba>
 b4e:	20 91 62 00 	lds	r18, 0x0062
 b52:	a2 2f       	mov	r26, r18
 b54:	b0 e0       	ldi	r27, 0x00	; 0
 b56:	70 e0       	ldi	r23, 0x00	; 0
 b58:	aa 0f       	add	r26, r26
 b5a:	bb 1f       	adc	r27, r27
 b5c:	a6 0f       	add	r26, r22
 b5e:	b7 1f       	adc	r27, r23
 b60:	aa 0f       	add	r26, r26
 b62:	bb 1f       	adc	r27, r27
 b64:	a9 59       	subi	r26, 0x99	; 153
 b66:	bf 4f       	sbci	r27, 0xFF	; 255
 b68:	8d 91       	ld	r24, X+
 b6a:	9c 91       	ld	r25, X
 b6c:	11 97       	sbiw	r26, 0x01	; 1
 b6e:	01 96       	adiw	r24, 0x01	; 1
 b70:	8d 93       	st	X+, r24
 b72:	9c 93       	st	X, r25
 b74:	21 11       	cpse	r18, r1
 b76:	13 c0       	rjmp	.+38     	; 0xb9e <main+0x540>
 b78:	fb 01       	movw	r30, r22
 b7a:	32 96       	adiw	r30, 0x02	; 2
 b7c:	ee 0f       	add	r30, r30
 b7e:	ff 1f       	adc	r31, r31
 b80:	e9 59       	subi	r30, 0x99	; 153
 b82:	ff 4f       	sbci	r31, 0xFF	; 255
 b84:	2f e2       	ldi	r18, 0x2F	; 47
 b86:	30 e0       	ldi	r19, 0x00	; 0
 b88:	80 81       	ld	r24, Z
 b8a:	91 81       	ldd	r25, Z+1	; 0x01
 b8c:	01 96       	adiw	r24, 0x01	; 1
 b8e:	91 83       	std	Z+1, r25	; 0x01
 b90:	80 83       	st	Z, r24
 b92:	21 50       	subi	r18, 0x01	; 1
 b94:	31 09       	sbc	r19, r1
 b96:	34 96       	adiw	r30, 0x04	; 4
 b98:	21 15       	cp	r18, r1
 b9a:	31 05       	cpc	r19, r1
 b9c:	a9 f7       	brne	.-22     	; 0xb88 <main+0x52a>
 b9e:	c0 98       	cbi	0x18, 0	; 24
 ba0:	30 92 64 00 	sts	0x0064, r3
 ba4:	20 92 63 00 	sts	0x0063, r2
 ba8:	61 ce       	rjmp	.-830    	; 0x86c <main+0x20e>
 baa:	88 e0       	ldi	r24, 0x08	; 8
 bac:	13 dd       	rcall	.-1498   	; 0x5d4 <updatePosition>
 bae:	5e ce       	rjmp	.-836    	; 0x86c <main+0x20e>
 bb0:	8c ef       	ldi	r24, 0xFC	; 252
 bb2:	10 dd       	rcall	.-1504   	; 0x5d4 <updatePosition>
 bb4:	5b ce       	rjmp	.-842    	; 0x86c <main+0x20e>
 bb6:	80 e2       	ldi	r24, 0x20	; 32
 bb8:	0d dd       	rcall	.-1510   	; 0x5d4 <updatePosition>
 bba:	58 ce       	rjmp	.-848    	; 0x86c <main+0x20e>
 bbc:	80 ef       	ldi	r24, 0xF0	; 240
 bbe:	0a dd       	rcall	.-1516   	; 0x5d4 <updatePosition>
 bc0:	55 ce       	rjmp	.-854    	; 0x86c <main+0x20e>
 bc2:	80 e1       	ldi	r24, 0x10	; 16
 bc4:	07 dd       	rcall	.-1522   	; 0x5d4 <updatePosition>
 bc6:	52 ce       	rjmp	.-860    	; 0x86c <main+0x20e>
 bc8:	88 ef       	ldi	r24, 0xF8	; 248
 bca:	04 dd       	rcall	.-1528   	; 0x5d4 <updatePosition>
 bcc:	4f ce       	rjmp	.-866    	; 0x86c <main+0x20e>
 bce:	80 91 63 00 	lds	r24, 0x0063
 bd2:	90 91 64 00 	lds	r25, 0x0064
 bd6:	30 91 2e 01 	lds	r19, 0x012E
 bda:	20 91 60 00 	lds	r18, 0x0060
 bde:	22 0f       	add	r18, r18
 be0:	23 0f       	add	r18, r19
 be2:	22 0f       	add	r18, r18
 be4:	31 e0       	ldi	r19, 0x01	; 1
 be6:	89 2b       	or	r24, r25
 be8:	09 f4       	brne	.+2      	; 0xbec <main+0x58e>
 bea:	30 e0       	ldi	r19, 0x00	; 0
 bec:	23 0f       	add	r18, r19
 bee:	2c b9       	out	0x0c, r18	; 12
 bf0:	03 e0       	ldi	r16, 0x03	; 3
 bf2:	10 e0       	ldi	r17, 0x00	; 0
 bf4:	c7 e6       	ldi	r28, 0x67	; 103
 bf6:	d0 e0       	ldi	r29, 0x00	; 0
 bf8:	68 81       	ld	r22, Y
 bfa:	79 81       	ldd	r23, Y+1	; 0x01
 bfc:	c8 01       	movw	r24, r16
 bfe:	34 d0       	rcall	.+104    	; 0xc68 <__eewr_word_m8>
 c00:	a8 95       	wdr
 c02:	6a 81       	ldd	r22, Y+2	; 0x02
 c04:	7b 81       	ldd	r23, Y+3	; 0x03
 c06:	c8 01       	movw	r24, r16
 c08:	02 96       	adiw	r24, 0x02	; 2
 c0a:	2e d0       	rcall	.+92     	; 0xc68 <__eewr_word_m8>
 c0c:	a8 95       	wdr
 c0e:	24 96       	adiw	r28, 0x04	; 4
 c10:	0c 5f       	subi	r16, 0xFC	; 252
 c12:	1f 4f       	sbci	r17, 0xFF	; 255
 c14:	81 e0       	ldi	r24, 0x01	; 1
 c16:	c7 32       	cpi	r28, 0x27	; 39
 c18:	d8 07       	cpc	r29, r24
 c1a:	71 f7       	brne	.-36     	; 0xbf8 <main+0x59a>
 c1c:	df 91       	pop	r29
 c1e:	cf 91       	pop	r28
 c20:	1f 91       	pop	r17
 c22:	0f 91       	pop	r16
 c24:	ff 90       	pop	r15
 c26:	ef 90       	pop	r14
 c28:	df 90       	pop	r13
 c2a:	cf 90       	pop	r12
 c2c:	bf 90       	pop	r11
 c2e:	af 90       	pop	r10
 c30:	9f 90       	pop	r9
 c32:	8f 90       	pop	r8
 c34:	7f 90       	pop	r7
 c36:	5f 90       	pop	r5
 c38:	4f 90       	pop	r4
 c3a:	3f 90       	pop	r3
 c3c:	2f 90       	pop	r2
 c3e:	08 95       	ret
 c40:	d0 92 2d 01 	sts	0x012D, r13
 c44:	13 ce       	rjmp	.-986    	; 0x86c <main+0x20e>
 c46:	9a 9b       	sbis	0x13, 2	; 19
 c48:	11 ce       	rjmp	.-990    	; 0x86c <main+0x20e>
 c4a:	d0 92 33 01 	sts	0x0133, r13
 c4e:	30 92 64 00 	sts	0x0064, r3
 c52:	20 92 63 00 	sts	0x0063, r2
 c56:	0a ce       	rjmp	.-1004   	; 0x86c <main+0x20e>
 c58:	80 ee       	ldi	r24, 0xE0	; 224
 c5a:	bc dc       	rcall	.-1672   	; 0x5d4 <updatePosition>
 c5c:	07 ce       	rjmp	.-1010   	; 0x86c <main+0x20e>

00000c5e <__eerd_word_m8>:
 c5e:	a8 e1       	ldi	r26, 0x18	; 24
 c60:	b0 e0       	ldi	r27, 0x00	; 0
 c62:	42 e0       	ldi	r20, 0x02	; 2
 c64:	50 e0       	ldi	r21, 0x00	; 0
 c66:	05 c0       	rjmp	.+10     	; 0xc72 <__eerd_blraw_m8>

00000c68 <__eewr_word_m8>:
 c68:	12 d0       	rcall	.+36     	; 0xc8e <__eewr_byte_m8>
 c6a:	27 2f       	mov	r18, r23
 c6c:	11 c0       	rjmp	.+34     	; 0xc90 <__eewr_r18_m8>

00000c6e <__eerd_block_m8>:
 c6e:	dc 01       	movw	r26, r24
 c70:	cb 01       	movw	r24, r22

00000c72 <__eerd_blraw_m8>:
 c72:	fc 01       	movw	r30, r24
 c74:	e1 99       	sbic	0x1c, 1	; 28
 c76:	fe cf       	rjmp	.-4      	; 0xc74 <__eerd_blraw_m8+0x2>
 c78:	06 c0       	rjmp	.+12     	; 0xc86 <__eerd_blraw_m8+0x14>
 c7a:	ff bb       	out	0x1f, r31	; 31
 c7c:	ee bb       	out	0x1e, r30	; 30
 c7e:	e0 9a       	sbi	0x1c, 0	; 28
 c80:	31 96       	adiw	r30, 0x01	; 1
 c82:	0d b2       	in	r0, 0x1d	; 29
 c84:	0d 92       	st	X+, r0
 c86:	41 50       	subi	r20, 0x01	; 1
 c88:	50 40       	sbci	r21, 0x00	; 0
 c8a:	b8 f7       	brcc	.-18     	; 0xc7a <__eerd_blraw_m8+0x8>
 c8c:	08 95       	ret

00000c8e <__eewr_byte_m8>:
 c8e:	26 2f       	mov	r18, r22

00000c90 <__eewr_r18_m8>:
 c90:	e1 99       	sbic	0x1c, 1	; 28
 c92:	fe cf       	rjmp	.-4      	; 0xc90 <__eewr_r18_m8>
 c94:	9f bb       	out	0x1f, r25	; 31
 c96:	8e bb       	out	0x1e, r24	; 30
 c98:	2d bb       	out	0x1d, r18	; 29
 c9a:	0f b6       	in	r0, 0x3f	; 63
 c9c:	f8 94       	cli
 c9e:	e2 9a       	sbi	0x1c, 2	; 28
 ca0:	e1 9a       	sbi	0x1c, 1	; 28
 ca2:	0f be       	out	0x3f, r0	; 63
 ca4:	01 96       	adiw	r24, 0x01	; 1
 ca6:	08 95       	ret

00000ca8 <_exit>:
 ca8:	f8 94       	cli

00000caa <__stop_program>:
 caa:	ff cf       	rjmp	.-2      	; 0xcaa <__stop_program>

Disassembly of section .data:

00800060 <__data_start>:
  800060:	01 28       	or	r0, r1

00800061 <decimateDrempel>:
  800061:	28 6e       	Address 0x0000000000800061 is out of bounds.
.word	0xffff	; ????

Disassembly of section .bss:

00800062 <__bss_start>:
	...

00800063 <step>:
	...

00800065 <drempelSturing.1598>:
	...

00800066 <decimate.1597>:
	...

00800067 <stepTabel>:
	...

00800127 <byteCount>:
	...

00800128 <blokOn>:
	...

0080012a <uartData1>:
	...

0080012b <blokOff>:
	...

0080012d <middenDetectie>:
	...

0080012e <middenDetected>:
	...

0080012f <snelheid>:
	...

00800130 <huisDecimation>:
	...

00800131 <inSync>:
	...

00800132 <uartData2>:
	...

00800133 <doHoming>:
	...

00800134 <brugBlokDDR>:
	...

00800135 <pulseBreedteCount>:
	...

00800136 <syncCount>:
	...

00800137 <huidigePosititieTweedeIndex>:
	...

Disassembly of section .eeprom:

00810000 <EepromAdres>:
  810000:	2c 01       	movw	r4, r24

00810002 <EepromType>:
  810002:	03 00       	.word	0x0003	; ????

00810003 <stepTabelRom>:
  810003:	00 00       	nop
  810005:	00 00       	nop
  810007:	9a 02       	muls	r25, r26
  810009:	9a 02       	muls	r25, r26
  81000b:	35 05       	cpc	r19, r5
  81000d:	35 05       	cpc	r19, r5
  81000f:	d0 07       	cpc	r29, r16
  810011:	d0 07       	cpc	r29, r16
  810013:	6a 0a       	sbc	r6, r26
  810015:	6a 0a       	sbc	r6, r26
  810017:	05 0d       	add	r16, r5
  810019:	05 0d       	add	r16, r5
  81001b:	a0 0f       	add	r26, r16
  81001d:	a0 0f       	add	r26, r16
  81001f:	3a 12       	cpse	r3, r26
  810021:	3a 12       	cpse	r3, r26
  810023:	d5 14       	cp	r13, r5
  810025:	d5 14       	cp	r13, r5
  810027:	70 17       	cp	r23, r16
  810029:	70 17       	cp	r23, r16
  81002b:	0a 1a       	sub	r0, r26
  81002d:	0a 1a       	sub	r0, r26
  81002f:	a5 1c       	adc	r10, r5
  810031:	a5 1c       	adc	r10, r5
  810033:	40 1f       	adc	r20, r16
  810035:	40 1f       	adc	r20, r16
  810037:	da 21       	and	r29, r10
  810039:	da 21       	and	r29, r10
  81003b:	75 24       	eor	r7, r5
  81003d:	75 24       	eor	r7, r5
  81003f:	10 27       	eor	r17, r16
  810041:	10 27       	eor	r17, r16
  810043:	aa 29       	or	r26, r10
  810045:	aa 29       	or	r26, r10
  810047:	45 2c       	mov	r4, r5
  810049:	45 2c       	mov	r4, r5
  81004b:	e0 2e       	mov	r14, r16
  81004d:	e0 2e       	mov	r14, r16
  81004f:	7a 31       	cpi	r23, 0x1A	; 26
  810051:	7a 31       	cpi	r23, 0x1A	; 26
  810053:	15 34       	cpi	r17, 0x45	; 69
  810055:	15 34       	cpi	r17, 0x45	; 69
  810057:	b0 36       	cpi	r27, 0x60	; 96
  810059:	b0 36       	cpi	r27, 0x60	; 96
  81005b:	4a 39       	cpi	r20, 0x9A	; 154
  81005d:	4a 39       	cpi	r20, 0x9A	; 154
  81005f:	e5 3b       	cpi	r30, 0xB5	; 181
  810061:	e5 3b       	cpi	r30, 0xB5	; 181
  810063:	80 3e       	cpi	r24, 0xE0	; 224
  810065:	80 3e       	cpi	r24, 0xE0	; 224
  810067:	1a 41       	sbci	r17, 0x1A	; 26
  810069:	1a 41       	sbci	r17, 0x1A	; 26
  81006b:	b5 43       	sbci	r27, 0x35	; 53
  81006d:	b5 43       	sbci	r27, 0x35	; 53
  81006f:	50 46       	sbci	r21, 0x60	; 96
  810071:	50 46       	sbci	r21, 0x60	; 96
  810073:	ea 48       	sbci	r30, 0x8A	; 138
  810075:	ea 48       	sbci	r30, 0x8A	; 138
  810077:	85 4b       	sbci	r24, 0xB5	; 181
  810079:	85 4b       	sbci	r24, 0xB5	; 181
  81007b:	20 4e       	sbci	r18, 0xE0	; 224
  81007d:	20 4e       	sbci	r18, 0xE0	; 224
  81007f:	ba 50       	subi	r27, 0x0A	; 10
  810081:	ba 50       	subi	r27, 0x0A	; 10
  810083:	55 53       	subi	r21, 0x35	; 53
  810085:	55 53       	subi	r21, 0x35	; 53
  810087:	f0 55       	subi	r31, 0x50	; 80
  810089:	f0 55       	subi	r31, 0x50	; 80
  81008b:	8a 58       	subi	r24, 0x8A	; 138
  81008d:	8a 58       	subi	r24, 0x8A	; 138
  81008f:	25 5b       	subi	r18, 0xB5	; 181
  810091:	25 5b       	subi	r18, 0xB5	; 181
  810093:	c0 5d       	subi	r28, 0xD0	; 208
  810095:	c0 5d       	subi	r28, 0xD0	; 208
  810097:	5a 60       	ori	r21, 0x0A	; 10
  810099:	5a 60       	ori	r21, 0x0A	; 10
  81009b:	f5 62       	ori	r31, 0x25	; 37
  81009d:	f5 62       	ori	r31, 0x25	; 37
  81009f:	90 65       	ori	r25, 0x50	; 80
  8100a1:	90 65       	ori	r25, 0x50	; 80
  8100a3:	2a 68       	ori	r18, 0x8A	; 138
  8100a5:	2a 68       	ori	r18, 0x8A	; 138
  8100a7:	c5 6a       	ori	r28, 0xA5	; 165
  8100a9:	c5 6a       	ori	r28, 0xA5	; 165
  8100ab:	60 6d       	ori	r22, 0xD0	; 208
  8100ad:	60 6d       	ori	r22, 0xD0	; 208
  8100af:	fa 6f       	ori	r31, 0xFA	; 250
  8100b1:	fa 6f       	ori	r31, 0xFA	; 250
  8100b3:	95 72       	andi	r25, 0x25	; 37
  8100b5:	95 72       	andi	r25, 0x25	; 37
  8100b7:	30 75       	andi	r19, 0x50	; 80
  8100b9:	30 75       	andi	r19, 0x50	; 80
  8100bb:	ca 77       	andi	r28, 0x7A	; 122
  8100bd:	ca 77       	andi	r28, 0x7A	; 122
  8100bf:	65 7a       	andi	r22, 0xA5	; 165
  8100c1:	65 7a       	andi	r22, 0xA5	; 165

Disassembly of section .stab:

00000000 <.stab>:
       0:	01 00       	.word	0x0001	; ????
       2:	00 00       	nop
       4:	00 00       	nop
       6:	b7 02       	muls	r27, r23
       8:	18 11       	cpse	r17, r8
       a:	00 00       	nop
       c:	01 00       	.word	0x0001	; ????
       e:	00 00       	nop
      10:	64 00       	.word	0x0064	; ????
      12:	00 00       	nop
      14:	5c 02       	muls	r21, r28
      16:	00 00       	nop
      18:	11 00       	.word	0x0011	; ????
      1a:	00 00       	nop
      1c:	80 00       	.word	0x0080	; ????
      1e:	00 00       	nop
      20:	00 00       	nop
      22:	00 00       	nop
      24:	1b 00       	.word	0x001b	; ????
      26:	00 00       	nop
      28:	24 00       	.word	0x0024	; ????
      2a:	33 00       	.word	0x0033	; ????
      2c:	00 00       	nop
      2e:	00 00       	nop
      30:	28 00       	.word	0x0028	; ????
      32:	00 00       	nop
      34:	84 00       	.word	0x0084	; ????
	...
      3e:	00 00       	nop
      40:	44 00       	.word	0x0044	; ????
      42:	34 00       	.word	0x0034	; ????
	...
      4c:	44 00       	.word	0x0044	; ????
      4e:	35 00       	.word	0x0035	; ????
      50:	02 00       	.word	0x0002	; ????
      52:	00 00       	nop
      54:	00 00       	nop
      56:	00 00       	nop
      58:	44 00       	.word	0x0044	; ????
      5a:	36 00       	.word	0x0036	; ????
      5c:	04 00       	.word	0x0004	; ????
      5e:	00 00       	nop
      60:	00 00       	nop
      62:	00 00       	nop
      64:	44 00       	.word	0x0044	; ????
      66:	37 00       	.word	0x0037	; ????
      68:	06 00       	.word	0x0006	; ????
      6a:	00 00       	nop
      6c:	00 00       	nop
      6e:	00 00       	nop
      70:	44 00       	.word	0x0044	; ????
      72:	38 00       	.word	0x0038	; ????
      74:	08 00       	.word	0x0008	; ????
      76:	00 00       	nop
      78:	00 00       	nop
      7a:	00 00       	nop
      7c:	44 00       	.word	0x0044	; ????
      7e:	39 00       	.word	0x0039	; ????
      80:	0a 00       	.word	0x000a	; ????
      82:	00 00       	nop
      84:	00 00       	nop
      86:	00 00       	nop
      88:	44 00       	.word	0x0044	; ????
      8a:	3a 00       	.word	0x003a	; ????
      8c:	0c 00       	.word	0x000c	; ????
      8e:	00 00       	nop
      90:	00 00       	nop
      92:	00 00       	nop
      94:	44 00       	.word	0x0044	; ????
      96:	3b 00       	.word	0x003b	; ????
      98:	0e 00       	.word	0x000e	; ????
      9a:	00 00       	nop
      9c:	00 00       	nop
      9e:	00 00       	nop
      a0:	44 00       	.word	0x0044	; ????
      a2:	3c 00       	.word	0x003c	; ????
      a4:	10 00       	.word	0x0010	; ????
      a6:	00 00       	nop
      a8:	00 00       	nop
      aa:	00 00       	nop
      ac:	44 00       	.word	0x0044	; ????
      ae:	3d 00       	.word	0x003d	; ????
      b0:	12 00       	.word	0x0012	; ????
      b2:	00 00       	nop
      b4:	00 00       	nop
      b6:	00 00       	nop
      b8:	44 00       	.word	0x0044	; ????
      ba:	3e 00       	.word	0x003e	; ????
      bc:	14 00       	.word	0x0014	; ????
      be:	00 00       	nop
      c0:	00 00       	nop
      c2:	00 00       	nop
      c4:	44 00       	.word	0x0044	; ????
      c6:	3f 00       	.word	0x003f	; ????
      c8:	16 00       	.word	0x0016	; ????
      ca:	00 00       	nop
      cc:	00 00       	nop
      ce:	00 00       	nop
      d0:	44 00       	.word	0x0044	; ????
      d2:	40 00       	.word	0x0040	; ????
      d4:	18 00       	.word	0x0018	; ????
      d6:	00 00       	nop
      d8:	00 00       	nop
      da:	00 00       	nop
      dc:	44 00       	.word	0x0044	; ????
      de:	41 00       	.word	0x0041	; ????
      e0:	1a 00       	.word	0x001a	; ????
      e2:	00 00       	nop
      e4:	00 00       	nop
      e6:	00 00       	nop
      e8:	44 00       	.word	0x0044	; ????
      ea:	42 00       	.word	0x0042	; ????
      ec:	1c 00       	.word	0x001c	; ????
      ee:	00 00       	nop
      f0:	00 00       	nop
      f2:	00 00       	nop
      f4:	44 00       	.word	0x0044	; ????
      f6:	43 00       	.word	0x0043	; ????
      f8:	1e 00       	.word	0x001e	; ????
      fa:	00 00       	nop
      fc:	00 00       	nop
      fe:	00 00       	nop
     100:	44 00       	.word	0x0044	; ????
     102:	44 00       	.word	0x0044	; ????
     104:	20 00       	.word	0x0020	; ????
     106:	00 00       	nop
     108:	00 00       	nop
     10a:	00 00       	nop
     10c:	44 00       	.word	0x0044	; ????
     10e:	45 00       	.word	0x0045	; ????
     110:	22 00       	.word	0x0022	; ????
     112:	00 00       	nop
     114:	00 00       	nop
     116:	00 00       	nop
     118:	44 00       	.word	0x0044	; ????
     11a:	46 00       	.word	0x0046	; ????
     11c:	24 00       	.word	0x0024	; ????
     11e:	00 00       	nop
     120:	00 00       	nop
     122:	00 00       	nop
     124:	44 00       	.word	0x0044	; ????
     126:	47 00       	.word	0x0047	; ????
     128:	26 00       	.word	0x0026	; ????
     12a:	00 00       	nop
     12c:	00 00       	nop
     12e:	00 00       	nop
     130:	44 00       	.word	0x0044	; ????
     132:	48 00       	.word	0x0048	; ????
     134:	26 00       	.word	0x0026	; ????
     136:	00 00       	nop
     138:	00 00       	nop
     13a:	00 00       	nop
     13c:	44 00       	.word	0x0044	; ????
     13e:	49 00       	.word	0x0049	; ????
     140:	26 00       	.word	0x0026	; ????
     142:	00 00       	nop
     144:	00 00       	nop
     146:	00 00       	nop
     148:	44 00       	.word	0x0044	; ????
     14a:	4a 00       	.word	0x004a	; ????
     14c:	26 00       	.word	0x0026	; ????
     14e:	00 00       	nop
     150:	00 00       	nop
     152:	00 00       	nop
     154:	44 00       	.word	0x0044	; ????
     156:	4b 00       	.word	0x004b	; ????
     158:	26 00       	.word	0x0026	; ????
     15a:	00 00       	nop
     15c:	00 00       	nop
     15e:	00 00       	nop
     160:	44 00       	.word	0x0044	; ????
     162:	4c 00       	.word	0x004c	; ????
     164:	26 00       	.word	0x0026	; ????
     166:	00 00       	nop
     168:	00 00       	nop
     16a:	00 00       	nop
     16c:	44 00       	.word	0x0044	; ????
     16e:	4d 00       	.word	0x004d	; ????
     170:	26 00       	.word	0x0026	; ????
     172:	00 00       	nop
     174:	00 00       	nop
     176:	00 00       	nop
     178:	44 00       	.word	0x0044	; ????
     17a:	4e 00       	.word	0x004e	; ????
     17c:	26 00       	.word	0x0026	; ????
     17e:	00 00       	nop
     180:	00 00       	nop
     182:	00 00       	nop
     184:	44 00       	.word	0x0044	; ????
     186:	4f 00       	.word	0x004f	; ????
     188:	26 00       	.word	0x0026	; ????
     18a:	00 00       	nop
     18c:	00 00       	nop
     18e:	00 00       	nop
     190:	44 00       	.word	0x0044	; ????
     192:	50 00       	.word	0x0050	; ????
     194:	26 00       	.word	0x0026	; ????
     196:	00 00       	nop
     198:	00 00       	nop
     19a:	00 00       	nop
     19c:	44 00       	.word	0x0044	; ????
     19e:	51 00       	.word	0x0051	; ????
     1a0:	26 00       	.word	0x0026	; ????
     1a2:	00 00       	nop
     1a4:	00 00       	nop
     1a6:	00 00       	nop
     1a8:	44 00       	.word	0x0044	; ????
     1aa:	52 00       	.word	0x0052	; ????
     1ac:	26 00       	.word	0x0026	; ????
     1ae:	00 00       	nop
     1b0:	00 00       	nop
     1b2:	00 00       	nop
     1b4:	44 00       	.word	0x0044	; ????
     1b6:	53 00       	.word	0x0053	; ????
     1b8:	26 00       	.word	0x0026	; ????
     1ba:	00 00       	nop
     1bc:	00 00       	nop
     1be:	00 00       	nop
     1c0:	44 00       	.word	0x0044	; ????
     1c2:	54 00       	.word	0x0054	; ????
     1c4:	26 00       	.word	0x0026	; ????
     1c6:	00 00       	nop
     1c8:	00 00       	nop
     1ca:	00 00       	nop
     1cc:	44 00       	.word	0x0044	; ????
     1ce:	55 00       	.word	0x0055	; ????
     1d0:	26 00       	.word	0x0026	; ????
     1d2:	00 00       	nop
     1d4:	00 00       	nop
     1d6:	00 00       	nop
     1d8:	44 00       	.word	0x0044	; ????
     1da:	56 00       	.word	0x0056	; ????
     1dc:	26 00       	.word	0x0026	; ????
     1de:	00 00       	nop
     1e0:	00 00       	nop
     1e2:	00 00       	nop
     1e4:	44 00       	.word	0x0044	; ????
     1e6:	57 00       	.word	0x0057	; ????
     1e8:	26 00       	.word	0x0026	; ????
     1ea:	00 00       	nop
     1ec:	00 00       	nop
     1ee:	00 00       	nop
     1f0:	44 00       	.word	0x0044	; ????
     1f2:	58 00       	.word	0x0058	; ????
     1f4:	26 00       	.word	0x0026	; ????
     1f6:	00 00       	nop
     1f8:	00 00       	nop
     1fa:	00 00       	nop
     1fc:	44 00       	.word	0x0044	; ????
     1fe:	59 00       	.word	0x0059	; ????
     200:	26 00       	.word	0x0026	; ????
     202:	00 00       	nop
     204:	00 00       	nop
     206:	00 00       	nop
     208:	44 00       	.word	0x0044	; ????
     20a:	5a 00       	.word	0x005a	; ????
     20c:	26 00       	.word	0x0026	; ????
     20e:	00 00       	nop
     210:	00 00       	nop
     212:	00 00       	nop
     214:	44 00       	.word	0x0044	; ????
     216:	5b 00       	.word	0x005b	; ????
     218:	26 00       	.word	0x0026	; ????
     21a:	00 00       	nop
     21c:	00 00       	nop
     21e:	00 00       	nop
     220:	44 00       	.word	0x0044	; ????
     222:	5c 00       	.word	0x005c	; ????
     224:	26 00       	.word	0x0026	; ????
     226:	00 00       	nop
     228:	00 00       	nop
     22a:	00 00       	nop
     22c:	44 00       	.word	0x0044	; ????
     22e:	5d 00       	.word	0x005d	; ????
     230:	26 00       	.word	0x0026	; ????
     232:	00 00       	nop
     234:	00 00       	nop
     236:	00 00       	nop
     238:	44 00       	.word	0x0044	; ????
     23a:	5e 00       	.word	0x005e	; ????
     23c:	26 00       	.word	0x0026	; ????
     23e:	00 00       	nop
     240:	00 00       	nop
     242:	00 00       	nop
     244:	44 00       	.word	0x0044	; ????
     246:	5f 00       	.word	0x005f	; ????
     248:	26 00       	.word	0x0026	; ????
     24a:	00 00       	nop
     24c:	00 00       	nop
     24e:	00 00       	nop
     250:	44 00       	.word	0x0044	; ????
     252:	60 00       	.word	0x0060	; ????
     254:	26 00       	.word	0x0026	; ????
     256:	00 00       	nop
     258:	00 00       	nop
     25a:	00 00       	nop
     25c:	44 00       	.word	0x0044	; ????
uint8_t huisDecimation;
bool needsHoming = true;

void Homing()
{
    if (doHoming)
     25e:	61 00       	.word	0x0061	; ????
     260:	26 00       	.word	0x0026	; ????
     262:	00 00       	nop
     264:	00 00       	nop
    {
        if (PINC & (1<<PC2))
     266:	00 00       	nop
     268:	44 00       	.word	0x0044	; ????
            decimateDrempel = 4;
        }
        else
        {
            // klaar
            decimateDrempel = 40;
     26a:	62 00       	.word	0x0062	; ????
     26c:	26 00       	.word	0x0026	; ????
     26e:	00 00       	nop
            step = stepTabel[0][0];
     270:	00 00       	nop
     272:	00 00       	nop
     274:	44 00       	.word	0x0044	; ????
     276:	63 00       	.word	0x0063	; ????
     278:	26 00       	.word	0x0026	; ????
     27a:	00 00       	nop
     27c:	00 00       	nop
     27e:	00 00       	nop
            if (step>=0)
     280:	44 00       	.word	0x0044	; ????
     282:	64 00       	.word	0x0064	; ????
     284:	26 00       	.word	0x0026	; ????
     286:	00 00       	nop
     288:	00 00       	nop
     28a:	00 00       	nop
            {
                PORTB &= ~(1<<PB0); //vooruit
     28c:	44 00       	.word	0x0044	; ????
            else
            {
                PORTB |= (1<<PB0); // terug
                step = -step;
            }
            doHoming = false;
     28e:	65 00       	.word	0x0065	; ????
     290:	26 00       	.word	0x0026	; ????
            needsHoming = false;
     292:	00 00       	nop
     294:	00 00       	nop
     296:	00 00       	nop
{
    if (doHoming)
    {
        if (PINC & (1<<PC2))
        {
            huidigePositie = 0;
     298:	44 00       	.word	0x0044	; ????
     29a:	66 00       	.word	0x0066	; ????
            PORTB |= (1<<PB0); // terug
     29c:	26 00       	.word	0x0026	; ????
            step = 32000;
     29e:	00 00       	nop
     2a0:	00 00       	nop
     2a2:	00 00       	nop
     2a4:	44 00       	.word	0x0044	; ????
     2a6:	67 00       	.word	0x0067	; ????
     2a8:	26 00       	.word	0x0026	; ????
            decimateDrempel = 4;
     2aa:	00 00       	nop
     2ac:	00 00       	nop
     2ae:	00 00       	nop
     2b0:	44 00       	.word	0x0044	; ????
            {
                PORTB &= ~(1<<PB0); //vooruit
            }
            else
            {
                PORTB |= (1<<PB0); // terug
     2b2:	68 00       	.word	0x0068	; ????
                step = -step;
     2b4:	26 00       	.word	0x0026	; ????
     2b6:	00 00       	nop
     2b8:	00 00       	nop
     2ba:	00 00       	nop
     2bc:	44 00       	.word	0x0044	; ????
     2be:	69 00       	.word	0x0069	; ????
     2c0:	26 00       	.word	0x0026	; ????
     2c2:	00 00       	nop
     2c4:	00 00       	nop
     2c6:	00 00       	nop
     2c8:	44 00       	.word	0x0044	; ????
     2ca:	6a 00       	.word	0x006a	; ????
uint8_t huisDecimation;
bool needsHoming = true;

void Homing()
{
    if (doHoming)
     2cc:	26 00       	.word	0x0026	; ????
     2ce:	00 00       	nop
     2d0:	00 00       	nop
     2d2:	00 00       	nop
    {
        if (PINC & (1<<PC2))
     2d4:	44 00       	.word	0x0044	; ????
     2d6:	6b 00       	.word	0x006b	; ????
            decimateDrempel = 4;
        }
        else
        {
            // klaar
            decimateDrempel = 40;
     2d8:	26 00       	.word	0x0026	; ????
     2da:	00 00       	nop
     2dc:	00 00       	nop
            step = stepTabel[0][0];
     2de:	00 00       	nop
     2e0:	44 00       	.word	0x0044	; ????
     2e2:	6c 00       	.word	0x006c	; ????
     2e4:	26 00       	.word	0x0026	; ????
     2e6:	00 00       	nop
     2e8:	00 00       	nop
     2ea:	00 00       	nop
     2ec:	44 00       	.word	0x0044	; ????
            if (step>=0)
     2ee:	6d 00       	.word	0x006d	; ????
     2f0:	26 00       	.word	0x0026	; ????
     2f2:	00 00       	nop
     2f4:	00 00       	nop
     2f6:	00 00       	nop
     2f8:	44 00       	.word	0x0044	; ????
            {
                PORTB &= ~(1<<PB0); //vooruit
     2fa:	6e 00       	.word	0x006e	; ????
            else
            {
                PORTB |= (1<<PB0); // terug
                step = -step;
            }
            doHoming = false;
     2fc:	26 00       	.word	0x0026	; ????
     2fe:	00 00       	nop
            needsHoming = false;
     300:	00 00       	nop
     302:	00 00       	nop
     304:	44 00       	.word	0x0044	; ????
     306:	6f 00       	.word	0x006f	; ????

void StepControl()
{
    static uint8_t decimate;
    Homing();
    decimate+=1;
     308:	26 00       	.word	0x0026	; ????
     30a:	00 00       	nop
     30c:	00 00       	nop
     30e:	00 00       	nop
     310:	44 00       	.word	0x0044	; ????
    if ((decimate>(decimateDrempel)) && (step!=0))
     312:	70 00       	.word	0x0070	; ????
     314:	26 00       	.word	0x0026	; ????
     316:	00 00       	nop
     318:	00 00       	nop
     31a:	00 00       	nop
     31c:	44 00       	.word	0x0044	; ????
     31e:	71 00       	.word	0x0071	; ????
     320:	26 00       	.word	0x0026	; ????
        step -= 1;
        PORTB |= (1<<DDB1);
    }

    static uint8_t drempelSturing =0;
    drempelSturing += 1;
     322:	00 00       	nop
     324:	00 00       	nop
     326:	00 00       	nop
    if (drempelSturing > 250)
     328:	44 00       	.word	0x0044	; ????
     32a:	72 00       	.word	0x0072	; ????
    {
        drempelSturing =0;
     32c:	26 00       	.word	0x0026	; ????
     32e:	00 00       	nop
        if (step>800)
     330:	00 00       	nop
     332:	00 00       	nop
     334:	44 00       	.word	0x0044	; ????
     336:	73 00       	.word	0x0073	; ????
     338:	26 00       	.word	0x0026	; ????
     33a:	00 00       	nop
     33c:	00 00       	nop
        {
            decimateDrempel -= (decimateDrempel>=2) ? 1: 0;
        }
        else
        {
            decimateDrempel += (decimateDrempel<30) ? 1: 0;
     33e:	00 00       	nop
     340:	44 00       	.word	0x0044	; ????
     342:	74 00       	.word	0x0074	; ????
     344:	26 00       	.word	0x0026	; ????
     346:	00 00       	nop
     348:	00 00       	nop
     34a:	00 00       	nop
     34c:	44 00       	.word	0x0044	; ????
        }
    }
    PORTB &= ~(1<<DDB1);
     34e:	75 00       	.word	0x0075	; ????
     350:	26 00       	.word	0x0026	; ????
    static uint8_t decimate;
    Homing();
    decimate+=1;
    if ((decimate>(decimateDrempel)) && (step!=0))
    {
        decimate=0;
     352:	00 00       	nop
     354:	00 00       	nop
        step -= 1;
     356:	00 00       	nop
     358:	44 00       	.word	0x0044	; ????
     35a:	76 00       	.word	0x0076	; ????
     35c:	26 00       	.word	0x0026	; ????
     35e:	00 00       	nop
     360:	00 00       	nop
     362:	00 00       	nop
     364:	44 00       	.word	0x0044	; ????
     366:	77 00       	.word	0x0077	; ????
        PORTB |= (1<<DDB1);
     368:	26 00       	.word	0x0026	; ????
    }

    static uint8_t drempelSturing =0;
    drempelSturing += 1;
     36a:	00 00       	nop
     36c:	00 00       	nop
     36e:	00 00       	nop
    if (drempelSturing > 250)
     370:	44 00       	.word	0x0044	; ????
     372:	78 00       	.word	0x0078	; ????
        step -= 1;
        PORTB |= (1<<DDB1);
    }

    static uint8_t drempelSturing =0;
    drempelSturing += 1;
     374:	26 00       	.word	0x0026	; ????
     376:	00 00       	nop
        else
        {
            decimateDrempel += (decimateDrempel<30) ? 1: 0;
        }
    }
    PORTB &= ~(1<<DDB1);
     378:	00 00       	nop
     37a:	00 00       	nop
    if (drempelSturing > 250)
    {
        drempelSturing =0;
        if (step>800)
        {
            decimateDrempel -= (decimateDrempel>=2) ? 1: 0;
     37c:	44 00       	.word	0x0044	; ????
     37e:	79 00       	.word	0x0079	; ????
     380:	26 00       	.word	0x0026	; ????
     382:	00 00       	nop
     384:	00 00       	nop
     386:	00 00       	nop
     388:	44 00       	.word	0x0044	; ????
     38a:	7a 00       	.word	0x007a	; ????
        else
        {
            decimateDrempel += (decimateDrempel<30) ? 1: 0;
        }
    }
    PORTB &= ~(1<<DDB1);
     38c:	26 00       	.word	0x0026	; ????
     38e:	00 00       	nop
{
    if (doHoming)
    {
        if (PINC & (1<<PC2))
        {
            huidigePositie = 0;
     390:	00 00       	nop
     392:	00 00       	nop
            PORTB |= (1<<PB0); // terug
     394:	44 00       	.word	0x0044	; ????
            step = 32000;
     396:	7b 00       	.word	0x007b	; ????
     398:	26 00       	.word	0x0026	; ????
     39a:	00 00       	nop
     39c:	00 00       	nop
     39e:	00 00       	nop
     3a0:	44 00       	.word	0x0044	; ????
            decimateDrempel = 4;
     3a2:	7c 00       	.word	0x007c	; ????
     3a4:	26 00       	.word	0x0026	; ????
     3a6:	00 00       	nop
     3a8:	00 00       	nop
     3aa:	00 00       	nop
        {
            decimateDrempel -= (decimateDrempel>=2) ? 1: 0;
        }
        else
        {
            decimateDrempel += (decimateDrempel<30) ? 1: 0;
     3ac:	44 00       	.word	0x0044	; ????
     3ae:	7d 00       	.word	0x007d	; ????
    if (drempelSturing > 250)
    {
        drempelSturing =0;
        if (step>800)
        {
            decimateDrempel -= (decimateDrempel>=2) ? 1: 0;
     3b0:	26 00       	.word	0x0026	; ????
     3b2:	00 00       	nop
     3b4:	00 00       	nop
     3b6:	00 00       	nop
     3b8:	44 00       	.word	0x0044	; ????
            {
                PORTB &= ~(1<<PB0); //vooruit
            }
            else
            {
                PORTB |= (1<<PB0); // terug
     3ba:	7e 00       	.word	0x007e	; ????
                step = -step;
     3bc:	26 00       	.word	0x0026	; ????
     3be:	00 00       	nop
     3c0:	00 00       	nop
     3c2:	00 00       	nop
     3c4:	44 00       	.word	0x0044	; ????
     3c6:	7f 00       	.word	0x007f	; ????
     3c8:	26 00       	.word	0x0026	; ????
     3ca:	00 00       	nop
     3cc:	00 00       	nop
     3ce:	00 00       	nop
     3d0:	44 00       	.word	0x0044	; ????
     3d2:	80 00       	.word	0x0080	; ????
    }
    PORTB &= ~(1<<DDB1);
}

ISR(USART_RXC_vect)
{
     3d4:	26 00       	.word	0x0026	; ????
     3d6:	00 00       	nop
     3d8:	00 00       	nop
     3da:	00 00       	nop
     3dc:	44 00       	.word	0x0044	; ????
     3de:	81 00       	.word	0x0081	; ????
     3e0:	26 00       	.word	0x0026	; ????
     3e2:	00 00       	nop
     3e4:	00 00       	nop
     3e6:	00 00       	nop
     3e8:	44 00       	.word	0x0044	; ????
     3ea:	82 00       	.word	0x0082	; ????
     3ec:	26 00       	.word	0x0026	; ????
     3ee:	00 00       	nop
     3f0:	00 00       	nop
     3f2:	00 00       	nop
     3f4:	44 00       	.word	0x0044	; ????
     3f6:	83 00       	.word	0x0083	; ????
     3f8:	26 00       	.word	0x0026	; ????
     3fa:	00 00       	nop
     3fc:	00 00       	nop
     3fe:	00 00       	nop
    uartData1 = uartData2;
     400:	44 00       	.word	0x0044	; ????
     402:	84 00       	.word	0x0084	; ????
     404:	26 00       	.word	0x0026	; ????
     406:	00 00       	nop
    uartData2 = UDR;
     408:	00 00       	nop
     40a:	00 00       	nop
     40c:	44 00       	.word	0x0044	; ????
    if (!inSync)
     40e:	85 00       	.word	0x0085	; ????
     410:	26 00       	.word	0x0026	; ????
     412:	00 00       	nop
     414:	00 00       	nop
    {
        // out of sync
        // set het brugblok uit
        DDRD &= ~(1<<PD7);
     416:	00 00       	nop
        PORTD &= ~(1<<PD7);
     418:	44 00       	.word	0x0044	; ????
        if ((uartData1 ==0) && (uartData2==0))
     41a:	86 00       	.word	0x0086	; ????
     41c:	26 00       	.word	0x0026	; ????
     41e:	00 00       	nop
     420:	00 00       	nop
     422:	00 00       	nop
     424:	44 00       	.word	0x0044	; ????
     426:	87 00       	.word	0x0087	; ????
     428:	26 00       	.word	0x0026	; ????
        {
            // sync gevonden
            byteCount = 2;
     42a:	00 00       	nop
     42c:	00 00       	nop
     42e:	00 00       	nop
            pulseBreedteCount=0;
            // zit nog iets meer aanvast
        }

    }
}
     430:	44 00       	.word	0x0044	; ????
     432:	88 00       	.word	0x0088	; ????
     434:	26 00       	.word	0x0026	; ????
     436:	00 00       	nop
     438:	00 00       	nop
     43a:	00 00       	nop
     43c:	44 00       	.word	0x0044	; ????
     43e:	89 00       	.word	0x0089	; ????
     440:	26 00       	.word	0x0026	; ????
     442:	00 00       	nop
     444:	00 00       	nop
     446:	00 00       	nop
     448:	44 00       	.word	0x0044	; ????
     44a:	8a 00       	.word	0x008a	; ????
     44c:	26 00       	.word	0x0026	; ????
     44e:	00 00       	nop
     450:	00 00       	nop
     452:	00 00       	nop
     454:	44 00       	.word	0x0044	; ????
     456:	8b 00       	.word	0x008b	; ????
     458:	26 00       	.word	0x0026	; ????
        }
    }
    else
    {
        // main programma zet deze op 0 als we 2 bytes bereiken
        byteCount += 1;
     45a:	00 00       	nop
     45c:	00 00       	nop
     45e:	00 00       	nop
     460:	44 00       	.word	0x0044	; ????
     462:	8c 00       	.word	0x008c	; ????
        // nu eerst de DA converter starten
        // save de status van het brugblok bij de start van de AD converter
        brugBlokDDR = DDRD;
     464:	26 00       	.word	0x0026	; ????
     466:	00 00       	nop
     468:	00 00       	nop
        ADCSR |= (1<<ADSC); // start de AD conversie de multiplexer word nu niet ingesteld ik neem aan dat die goed staat voor 1 blok
     46a:	00 00       	nop

        // wacht lus want anders is de adc nog niet klaar met sample hold voordat de uitgang wijzigd.
        // nu 48us voordat de uitgang wijzigd en grogweg 70us nadat de uitgang wijzigd (heb 1.5 adc clock out of 13.5 nodig voor sample hold)
        for (volatile int i=0;i<30;i++);
     46c:	44 00       	.word	0x0044	; ????
     46e:	8d 00       	.word	0x008d	; ????
     470:	26 00       	.word	0x0026	; ????
     472:	00 00       	nop
     474:	00 00       	nop
     476:	00 00       	nop
     478:	44 00       	.word	0x0044	; ????
     47a:	8e 00       	.word	0x008e	; ????
     47c:	26 00       	.word	0x0026	; ????
     47e:	00 00       	nop
     480:	00 00       	nop
     482:	00 00       	nop
     484:	44 00       	.word	0x0044	; ????
     486:	8f 00       	.word	0x008f	; ????
     488:	26 00       	.word	0x0026	; ????

        StepControl();
     48a:	00 00       	nop
        if (middenDetectie)
     48c:	00 00       	nop
     48e:	00 00       	nop
     490:	44 00       	.word	0x0044	; ????
     492:	90 00       	.word	0x0090	; ????
        {
            if ((PINC & (1<<PC3)) == 0)
     494:	26 00       	.word	0x0026	; ????
     496:	00 00       	nop
            {
                // loc detected
                middenDetected = true;
     498:	00 00       	nop
     49a:	00 00       	nop
     49c:	44 00       	.word	0x0044	; ????
                snelheid = snelheid &0x80; // onthoud richting
     49e:	91 00       	.word	0x0091	; ????
     4a0:	26 00       	.word	0x0026	; ????
     4a2:	00 00       	nop
     4a4:	00 00       	nop
     4a6:	00 00       	nop
            }
        }

        uint8_t snel = (snelheid & 0x40) ? 0: snelheid; // als er kortsluiting is dan 0 gebruiken
     4a8:	44 00       	.word	0x0044	; ????
     4aa:	92 00       	.word	0x0092	; ????
     4ac:	26 00       	.word	0x0026	; ????
     4ae:	00 00       	nop
     4b0:	00 00       	nop
     4b2:	00 00       	nop
        uint8_t pulse = pgm_read_byte(&pulseTabel[snel&0x3f][pulseBreedteCount>>3]);
     4b4:	44 00       	.word	0x0044	; ????
     4b6:	93 00       	.word	0x0093	; ????
     4b8:	26 00       	.word	0x0026	; ????
     4ba:	00 00       	nop
     4bc:	00 00       	nop
     4be:	00 00       	nop
     4c0:	44 00       	.word	0x0044	; ????
     4c2:	94 00       	.word	0x0094	; ????
     4c4:	26 00       	.word	0x0026	; ????
     4c6:	00 00       	nop
     4c8:	00 00       	nop
     4ca:	00 00       	nop
     4cc:	44 00       	.word	0x0044	; ????
     4ce:	95 00       	.word	0x0095	; ????
     4d0:	26 00       	.word	0x0026	; ????
     4d2:	00 00       	nop
        if (pulse & (1<<(pulseBreedteCount&0x7)))
     4d4:	00 00       	nop
     4d6:	00 00       	nop
     4d8:	44 00       	.word	0x0044	; ????
     4da:	96 00       	.word	0x0096	; ????
     4dc:	26 00       	.word	0x0026	; ????
     4de:	00 00       	nop
     4e0:	00 00       	nop
     4e2:	00 00       	nop
     4e4:	44 00       	.word	0x0044	; ????
     4e6:	97 00       	.word	0x0097	; ????
     4e8:	26 00       	.word	0x0026	; ????
        {
            // moet spanning geleverd worden
            // toevalig zit brugBlok op bit 7 en is riching bepaald door bit 7 in snelheid:)
            PORTD = (snelheid&0x80) | (PORTD&0x7f);
     4ea:	00 00       	nop
     4ec:	00 00       	nop
     4ee:	00 00       	nop
     4f0:	44 00       	.word	0x0044	; ????
     4f2:	98 00       	.word	0x0098	; ????
     4f4:	26 00       	.word	0x0026	; ????
     4f6:	00 00       	nop
            DDRD |= (1<<DDD7);
     4f8:	00 00       	nop
            PORTD &= ~(1<<DDD7);
            DDRD &= ~(1<<DDD7);
        }


        pulseBreedteCount += 1;
     4fa:	00 00       	nop
     4fc:	44 00       	.word	0x0044	; ????
     4fe:	99 00       	.word	0x0099	; ????
     500:	26 00       	.word	0x0026	; ????
     502:	00 00       	nop
        if (pulseBreedteCount == AANTAL_PULSEN)
     504:	00 00       	nop
     506:	00 00       	nop
     508:	44 00       	.word	0x0044	; ????
     50a:	9a 00       	.word	0x009a	; ????
     50c:	26 00       	.word	0x0026	; ????
        {
            pulseBreedteCount=0;
     50e:	00 00       	nop
     510:	00 00       	nop
     512:	00 00       	nop
                middenDetected = true;
                snelheid = snelheid &0x80; // onthoud richting
            }
        }

        uint8_t snel = (snelheid & 0x40) ? 0: snelheid; // als er kortsluiting is dan 0 gebruiken
     514:	44 00       	.word	0x0044	; ????
     516:	9b 00       	.word	0x009b	; ????
     518:	26 00       	.word	0x0026	; ????
     51a:	00 00       	nop
     51c:	00 00       	nop
            DDRD |= (1<<DDD7);
        }
        else
        {
            // geen spanning dus uitgang zwevend (geen pullup dus port op 0
            PORTD &= ~(1<<DDD7);
     51e:	00 00       	nop
            DDRD &= ~(1<<DDD7);
     520:	44 00       	.word	0x0044	; ????
     522:	9c 00       	.word	0x009c	; ????



// tijdelijk voor testen
ISR(USART_UDRE_vect)
{
     524:	26 00       	.word	0x0026	; ????
     526:	00 00       	nop
     528:	00 00       	nop
     52a:	00 00       	nop
     52c:	44 00       	.word	0x0044	; ????
//    UDR = 0xf0;
}
     52e:	9d 00       	.word	0x009d	; ????
     530:	26 00       	.word	0x0026	; ????
     532:	00 00       	nop
     534:	00 00       	nop
     536:	00 00       	nop


ISR(ADC_vect)
{
     538:	44 00       	.word	0x0044	; ????
     53a:	9e 00       	.word	0x009e	; ????
     53c:	26 00       	.word	0x0026	; ????
     53e:	00 00       	nop
     540:	00 00       	nop
     542:	00 00       	nop
     544:	44 00       	.word	0x0044	; ????
     546:	9f 00       	.word	0x009f	; ????
     548:	26 00       	.word	0x0026	; ????
     54a:	00 00       	nop
    // LSB x x x x x x x x
    // waarbij x een AD bit is. Tezien is dat het 16bit getal uit de AD
    // geheel naar beneden is geschaald. Wil ik zodadelijk alleen het MSB
    // uit het filter pakken dan gooi ik bijna alle bitten weg. Dus moet
    // het AD getal met 64 vermenigvuldigd worden
    uint16_t input = ADCL + (ADCH<<8);
     54c:	00 00       	nop
     54e:	00 00       	nop
     550:	44 00       	.word	0x0044	; ????
     552:	a0 00       	.word	0x00a0	; ????
     554:	26 00       	.word	0x0026	; ????
     556:	00 00       	nop
     558:	00 00       	nop
    // elk kanaal een appart filter en ook een
    // apart filter voor spanning en geen spanning
    //
    // convert adInput number to a bit mask

    uint16_t output = blokOff;
     55a:	00 00       	nop
     55c:	44 00       	.word	0x0044	; ????
     55e:	a1 00       	.word	0x00a1	; ????
     560:	26 00       	.word	0x0026	; ????
    if (brugBlokDDR & (1<<DDD7))
     562:	00 00       	nop
     564:	00 00       	nop
     566:	00 00       	nop
     568:	44 00       	.word	0x0044	; ????
    // optellen. Bij deze optelling kan een overflow onstaan gelukkig
    // is het filter zo dat ik kan garanderen dat input en output binnen
    // een 16bit word passen dus zal een evetuele tijdelijk overflow in een
    // tussen resultaat geen probleem opleveren.
    //output = input+output - (output>>4);
    output = input+output - (output>>6);
     56a:	a2 00       	.word	0x00a2	; ????
     56c:	26 00       	.word	0x0026	; ????
     56e:	00 00       	nop
     570:	00 00       	nop
     572:	00 00       	nop
     574:	44 00       	.word	0x0044	; ????
     576:	a3 00       	.word	0x00a3	; ????
     578:	26 00       	.word	0x0026	; ????
     57a:	00 00       	nop
     57c:	00 00       	nop
     57e:	00 00       	nop
     580:	44 00       	.word	0x0044	; ????
     582:	a4 00       	.word	0x00a4	; ????

    if (brugBlokDDR & (1<<DDD7))
     584:	26 00       	.word	0x0026	; ????
     586:	00 00       	nop
     588:	00 00       	nop
     58a:	00 00       	nop
        }
        blokOn = output;
    }
    else
    {
        blokOff = output;
     58c:	44 00       	.word	0x0044	; ????
     58e:	a5 00       	.word	0x00a5	; ????
     590:	26 00       	.word	0x0026	; ????
     592:	00 00       	nop
    }
}
     594:	00 00       	nop
     596:	00 00       	nop
     598:	44 00       	.word	0x0044	; ????
     59a:	a6 00       	.word	0x00a6	; ????
     59c:	26 00       	.word	0x0026	; ????
     59e:	00 00       	nop
     5a0:	00 00       	nop
     5a2:	00 00       	nop
     5a4:	44 00       	.word	0x0044	; ????
     5a6:	a7 00       	.word	0x00a7	; ????
    // convert adInput number to a bit mask

    uint16_t output = blokOff;
    if (brugBlokDDR & (1<<DDD7))
    {
        output = blokOn;
     5a8:	26 00       	.word	0x0026	; ????
     5aa:	00 00       	nop
     5ac:	00 00       	nop
     5ae:	00 00       	nop
     5b0:	44 00       	.word	0x0044	; ????
    output = input+output - (output>>6);

    if (brugBlokDDR & (1<<DDD7))
    {
        // blok heeft spanning
        if ((output > LOW_LEVEL_DREMPEL) && (output < HIGH_LEVEL_DREMPEL))
     5b2:	a8 00       	.word	0x00a8	; ????
     5b4:	26 00       	.word	0x0026	; ????
     5b6:	00 00       	nop
     5b8:	00 00       	nop
     5ba:	00 00       	nop
     5bc:	44 00       	.word	0x0044	; ????
        {
            // spanning binnen low en high dus concludeer ik kortsluiting
            // zet dit blok nu uit
            DDRD &= ~(1<<DDD7);
     5be:	a9 00       	.word	0x00a9	; ????
            snelheid |= 0x40;  // zet bit 6 om kortsluiting te melden
     5c0:	26 00       	.word	0x0026	; ????
     5c2:	00 00       	nop
     5c4:	00 00       	nop
     5c6:	00 00       	nop
     5c8:	44 00       	.word	0x0044	; ????
        }
        blokOn = output;
     5ca:	aa 00       	.word	0x00aa	; ????
     5cc:	26 00       	.word	0x0026	; ????
     5ce:	00 00       	nop
     5d0:	00 00       	nop
     5d2:	00 00       	nop
    }
}

void updatePosition(int8_t update, bool alternateTable)
{
    stepTabel[huidigePositie][alternateTable] += update;
     5d4:	44 00       	.word	0x0044	; ????
     5d6:	ab 00       	.word	0x00ab	; ????
     5d8:	26 00       	.word	0x0026	; ????
     5da:	00 00       	nop
     5dc:	00 00       	nop
     5de:	00 00       	nop
     5e0:	44 00       	.word	0x0044	; ????
     5e2:	ac 00       	.word	0x00ac	; ????
     5e4:	26 00       	.word	0x0026	; ????
     5e6:	00 00       	nop
     5e8:	00 00       	nop
     5ea:	00 00       	nop
     5ec:	44 00       	.word	0x0044	; ????
     5ee:	ad 00       	.word	0x00ad	; ????
     5f0:	26 00       	.word	0x0026	; ????
     5f2:	00 00       	nop
     5f4:	00 00       	nop
     5f6:	00 00       	nop
     5f8:	44 00       	.word	0x0044	; ????
     5fa:	ae 00       	.word	0x00ae	; ????
     5fc:	26 00       	.word	0x0026	; ????
     5fe:	00 00       	nop
     600:	00 00       	nop
    if (huidigePositie == 0)
     602:	00 00       	nop
     604:	44 00       	.word	0x0044	; ????
     606:	af 00       	.word	0x00af	; ????
     608:	26 00       	.word	0x0026	; ????
     60a:	00 00       	nop
     60c:	00 00       	nop
     60e:	00 00       	nop
     610:	44 00       	.word	0x0044	; ????
     612:	b0 00       	.word	0x00b0	; ????
    {
        // voor de home position alles tabel entries updaten
        for (int i=1;i<48;i++)
        {
            stepTabel[i][alternateTable] += update;
     614:	26 00       	.word	0x0026	; ????
     616:	00 00       	nop
     618:	00 00       	nop
     61a:	00 00       	nop
     61c:	44 00       	.word	0x0044	; ????
     61e:	b1 00       	.word	0x00b1	; ????
     620:	26 00       	.word	0x0026	; ????
     622:	00 00       	nop
     624:	00 00       	nop
{
    stepTabel[huidigePositie][alternateTable] += update;
    if (huidigePositie == 0)
    {
        // voor de home position alles tabel entries updaten
        for (int i=1;i<48;i++)
     626:	00 00       	nop
     628:	44 00       	.word	0x0044	; ????
     62a:	b2 00       	.word	0x00b2	; ????
        {
            stepTabel[i][alternateTable] += update;
        }
    }
    if (update>=0)
     62c:	26 00       	.word	0x0026	; ????
     62e:	00 00       	nop
    {
        PORTB &= ~(1<<PB0);
     630:	00 00       	nop
        step = update;
     632:	00 00       	nop
     634:	44 00       	.word	0x0044	; ????
     636:	b3 00       	.word	0x00b3	; ????
     638:	26 00       	.word	0x0026	; ????
     63a:	00 00       	nop
    }
    else
    {
        PORTB |= (1<<PB0);
     63c:	00 00       	nop
        step = -update;
     63e:	00 00       	nop
     640:	24 00       	.word	0x0024	; ????
     642:	00 00       	nop
     644:	26 00       	.word	0x0026	; ????
     646:	00 00       	nop
     648:	41 00       	.word	0x0041	; ????
     64a:	00 00       	nop
     64c:	24 00       	.word	0x0024	; ????
    }
}

void huisVerlichting( bool aan)
{
    if (aan)
     64e:	c0 00       	.word	0x00c0	; ????
     650:	5c 02       	muls	r21, r28
    {
        PORTC &= ~(1<<PC4);
        huisDecimation = 0;
    }
    else
        PORTC |= (1<<PC4);
     652:	00 00       	nop
     654:	00 00       	nop

void huisVerlichting( bool aan)
{
    if (aan)
    {
        PORTC &= ~(1<<PC4);
     656:	00 00       	nop
        huisDecimation = 0;
     658:	44 00       	.word	0x0044	; ????
     65a:	c3 00       	.word	0x00c3	; ????
	...
     664:	24 00       	.word	0x0024	; ????
     666:	00 00       	nop
     668:	02 00       	.word	0x0002	; ????
     66a:	00 00       	nop
     66c:	00 00       	nop
     66e:	00 00       	nop
     670:	44 00       	.word	0x0044	; ????
     672:	d8 00       	.word	0x00d8	; ????
     674:	26 02       	muls	r18, r22
     676:	00 00       	nop
     678:	00 00       	nop
     67a:	00 00       	nop
     67c:	44 00       	.word	0x0044	; ????
     67e:	d9 00       	.word	0x00d9	; ????
     680:	28 02       	muls	r18, r24
     682:	00 00       	nop
     684:	00 00       	nop
     686:	00 00       	nop
     688:	44 00       	.word	0x0044	; ????
     68a:	da 00       	.word	0x00da	; ????
     68c:	2a 02       	muls	r18, r26
     68e:	00 00       	nop
     690:	00 00       	nop
     692:	00 00       	nop
     694:	44 00       	.word	0x0044	; ????
     696:	dc 00       	.word	0x00dc	; ????
     698:	2c 02       	muls	r18, r28
     69a:	00 00       	nop
     69c:	00 00       	nop
     69e:	00 00       	nop
     6a0:	44 00       	.word	0x0044	; ????
     6a2:	dd 00       	.word	0x00dd	; ????
     6a4:	2e 02       	muls	r18, r30
     6a6:	00 00       	nop
     6a8:	00 00       	nop
     6aa:	00 00       	nop
     6ac:	44 00       	.word	0x0044	; ????
     6ae:	df 00       	.word	0x00df	; ????
     6b0:	30 02       	muls	r19, r16
     6b2:	00 00       	nop
     6b4:	00 00       	nop
     6b6:	00 00       	nop
     6b8:	44 00       	.word	0x0044	; ????
     6ba:	24 01       	movw	r4, r8
     6bc:	58 02       	muls	r21, r24
     6be:	00 00       	nop
     6c0:	00 00       	nop
     6c2:	00 00       	nop
     6c4:	44 00       	.word	0x0044	; ????
     6c6:	25 01       	movw	r4, r10
     6c8:	5a 02       	muls	r21, r26
     6ca:	00 00       	nop
     6cc:	54 00       	.word	0x0054	; ????
     6ce:	00 00       	nop
     6d0:	64 00       	.word	0x0064	; ????
     6d2:	02 00       	.word	0x0002	; ????
     6d4:	5e 02       	muls	r21, r30
     6d6:	00 00       	nop
     6d8:	8c 00       	.word	0x008c	; ????
     6da:	00 00       	nop
     6dc:	64 00       	.word	0x0064	; ????
     6de:	02 00       	.word	0x0002	; ????
     6e0:	5e 02       	muls	r21, r30
     6e2:	00 00       	nop
     6e4:	93 00       	.word	0x0093	; ????
     6e6:	00 00       	nop
     6e8:	3c 00       	.word	0x003c	; ????
     6ea:	00 00       	nop
     6ec:	00 00       	nop
     6ee:	00 00       	nop
     6f0:	a2 00       	.word	0x00a2	; ????
     6f2:	00 00       	nop
     6f4:	80 00       	.word	0x0080	; ????
     6f6:	00 00       	nop
     6f8:	00 00       	nop
     6fa:	00 00       	nop
     6fc:	c2 00       	.word	0x00c2	; ????
     6fe:	00 00       	nop
     700:	80 00       	.word	0x0080	; ????
     702:	00 00       	nop
     704:	00 00       	nop
     706:	00 00       	nop
     708:	dc 00       	.word	0x00dc	; ????
     70a:	00 00       	nop
     70c:	80 00       	.word	0x0080	; ????
     70e:	00 00       	nop
     710:	00 00       	nop
     712:	00 00       	nop
     714:	13 01       	movw	r2, r6
     716:	00 00       	nop
     718:	80 00       	.word	0x0080	; ????
     71a:	00 00       	nop
     71c:	00 00       	nop
     71e:	00 00       	nop
     720:	39 01       	movw	r6, r18
     722:	00 00       	nop
     724:	80 00       	.word	0x0080	; ????
     726:	00 00       	nop
     728:	00 00       	nop
     72a:	00 00       	nop
     72c:	6e 01       	movw	r12, r28
     72e:	00 00       	nop
     730:	80 00       	.word	0x0080	; ????
     732:	00 00       	nop
     734:	00 00       	nop
     736:	00 00       	nop
     738:	bf 01       	movw	r22, r30
     73a:	00 00       	nop
     73c:	80 00       	.word	0x0080	; ????
     73e:	00 00       	nop
     740:	00 00       	nop
     742:	00 00       	nop
     744:	04 02       	muls	r16, r20
     746:	00 00       	nop
     748:	80 00       	.word	0x0080	; ????
     74a:	00 00       	nop
     74c:	00 00       	nop
     74e:	00 00       	nop
     750:	2a 02       	muls	r18, r26
     752:	00 00       	nop
     754:	80 00       	.word	0x0080	; ????
     756:	00 00       	nop
     758:	00 00       	nop
     75a:	00 00       	nop
     75c:	56 02       	muls	r21, r22
     75e:	00 00       	nop
     760:	80 00       	.word	0x0080	; ????
     762:	00 00       	nop
     764:	00 00       	nop
     766:	00 00       	nop
     768:	80 02       	muls	r24, r16
     76a:	00 00       	nop
     76c:	80 00       	.word	0x0080	; ????
     76e:	00 00       	nop
     770:	00 00       	nop
     772:	00 00       	nop
     774:	a9 02       	muls	r26, r25
     776:	00 00       	nop
     778:	80 00       	.word	0x0080	; ????
     77a:	00 00       	nop
     77c:	00 00       	nop
     77e:	00 00       	nop
     780:	c3 02       	muls	r28, r19
     782:	00 00       	nop
     784:	80 00       	.word	0x0080	; ????
     786:	00 00       	nop
     788:	00 00       	nop
     78a:	00 00       	nop
     78c:	de 02       	muls	r29, r30
     78e:	00 00       	nop
     790:	80 00       	.word	0x0080	; ????
     792:	00 00       	nop
     794:	00 00       	nop
     796:	00 00       	nop
     798:	fe 02       	muls	r31, r30
     79a:	00 00       	nop
     79c:	80 00       	.word	0x0080	; ????
     79e:	00 00       	nop
     7a0:	00 00       	nop
     7a2:	00 00       	nop
     7a4:	1f 03       	fmul	r17, r23
     7a6:	00 00       	nop
     7a8:	80 00       	.word	0x0080	; ????
     7aa:	00 00       	nop
     7ac:	00 00       	nop
     7ae:	00 00       	nop
     7b0:	3f 03       	fmul	r19, r23
     7b2:	00 00       	nop
     7b4:	80 00       	.word	0x0080	; ????
     7b6:	00 00       	nop
     7b8:	00 00       	nop
     7ba:	00 00       	nop
     7bc:	64 03       	mulsu	r22, r20
     7be:	00 00       	nop
     7c0:	80 00       	.word	0x0080	; ????
     7c2:	00 00       	nop
     7c4:	00 00       	nop
     7c6:	00 00       	nop
     7c8:	8e 03       	fmulsu	r16, r22
     7ca:	00 00       	nop
     7cc:	80 00       	.word	0x0080	; ????
     7ce:	00 00       	nop
     7d0:	00 00       	nop
     7d2:	00 00       	nop
     7d4:	b2 03       	fmuls	r19, r18
     7d6:	00 00       	nop
     7d8:	80 00       	.word	0x0080	; ????
     7da:	00 00       	nop
     7dc:	00 00       	nop
     7de:	00 00       	nop
     7e0:	db 03       	fmulsu	r21, r19
     7e2:	00 00       	nop
     7e4:	80 00       	.word	0x0080	; ????
     7e6:	00 00       	nop
     7e8:	00 00       	nop
     7ea:	00 00       	nop
     7ec:	09 04       	cpc	r0, r9
     7ee:	00 00       	nop
     7f0:	80 00       	.word	0x0080	; ????
     7f2:	00 00       	nop
     7f4:	00 00       	nop
     7f6:	00 00       	nop
     7f8:	2f 04       	cpc	r2, r15
     7fa:	00 00       	nop
     7fc:	80 00       	.word	0x0080	; ????
     7fe:	00 00       	nop
     800:	00 00       	nop
     802:	00 00       	nop
     804:	4f 04       	cpc	r4, r15
     806:	00 00       	nop
     808:	80 00       	.word	0x0080	; ????
     80a:	00 00       	nop
     80c:	00 00       	nop
     80e:	00 00       	nop
     810:	74 04       	cpc	r7, r4
     812:	00 00       	nop
     814:	80 00       	.word	0x0080	; ????
     816:	00 00       	nop
     818:	00 00       	nop
     81a:	00 00       	nop
     81c:	9e 04       	cpc	r9, r14
     81e:	00 00       	nop
     820:	80 00       	.word	0x0080	; ????
     822:	00 00       	nop
     824:	00 00       	nop
     826:	00 00       	nop
     828:	cd 04       	cpc	r12, r13
     82a:	00 00       	nop
     82c:	80 00       	.word	0x0080	; ????
     82e:	00 00       	nop
     830:	00 00       	nop
     832:	00 00       	nop
     834:	f6 04       	cpc	r15, r6
     836:	00 00       	nop
     838:	80 00       	.word	0x0080	; ????
     83a:	00 00       	nop
     83c:	00 00       	nop
     83e:	00 00       	nop
     840:	24 05       	cpc	r18, r4
     842:	00 00       	nop
     844:	80 00       	.word	0x0080	; ????
     846:	00 00       	nop
     848:	00 00       	nop
     84a:	00 00       	nop
     84c:	57 05       	cpc	r21, r7
     84e:	00 00       	nop
     850:	80 00       	.word	0x0080	; ????
     852:	00 00       	nop
     854:	00 00       	nop
     856:	00 00       	nop
     858:	78 05       	cpc	r23, r8
     85a:	00 00       	nop
     85c:	80 00       	.word	0x0080	; ????
     85e:	00 00       	nop
     860:	00 00       	nop
     862:	00 00       	nop
     864:	98 05       	cpc	r25, r8
     866:	00 00       	nop
     868:	80 00       	.word	0x0080	; ????
     86a:	00 00       	nop
     86c:	00 00       	nop
     86e:	00 00       	nop
     870:	bd 05       	cpc	r27, r13
     872:	00 00       	nop
     874:	80 00       	.word	0x0080	; ????
     876:	00 00       	nop
     878:	00 00       	nop
     87a:	00 00       	nop
     87c:	e7 05       	cpc	r30, r7
     87e:	00 00       	nop
     880:	80 00       	.word	0x0080	; ????
     882:	00 00       	nop
     884:	00 00       	nop
     886:	00 00       	nop
     888:	0b 06       	cpc	r0, r27
     88a:	00 00       	nop
     88c:	80 00       	.word	0x0080	; ????
     88e:	00 00       	nop
     890:	00 00       	nop
     892:	00 00       	nop
     894:	34 06       	cpc	r3, r20
     896:	00 00       	nop
     898:	80 00       	.word	0x0080	; ????
     89a:	00 00       	nop
     89c:	00 00       	nop
     89e:	00 00       	nop
     8a0:	62 06       	cpc	r6, r18
     8a2:	00 00       	nop
     8a4:	80 00       	.word	0x0080	; ????
     8a6:	00 00       	nop
     8a8:	00 00       	nop
     8aa:	00 00       	nop
     8ac:	88 06       	cpc	r8, r24
     8ae:	00 00       	nop
     8b0:	80 00       	.word	0x0080	; ????
     8b2:	00 00       	nop
     8b4:	00 00       	nop
     8b6:	00 00       	nop
     8b8:	a8 06       	cpc	r10, r24
     8ba:	00 00       	nop
     8bc:	80 00       	.word	0x0080	; ????
     8be:	00 00       	nop
     8c0:	00 00       	nop
     8c2:	00 00       	nop
     8c4:	cd 06       	cpc	r12, r29
     8c6:	00 00       	nop
     8c8:	80 00       	.word	0x0080	; ????
     8ca:	00 00       	nop
     8cc:	00 00       	nop
     8ce:	00 00       	nop
     8d0:	f7 06       	cpc	r15, r23
     8d2:	00 00       	nop
     8d4:	80 00       	.word	0x0080	; ????
     8d6:	00 00       	nop
     8d8:	00 00       	nop
     8da:	00 00       	nop
     8dc:	26 07       	cpc	r18, r22
     8de:	00 00       	nop
     8e0:	80 00       	.word	0x0080	; ????
     8e2:	00 00       	nop
     8e4:	00 00       	nop
     8e6:	00 00       	nop
     8e8:	4f 07       	cpc	r20, r31
     8ea:	00 00       	nop
     8ec:	80 00       	.word	0x0080	; ????
     8ee:	00 00       	nop
     8f0:	00 00       	nop
     8f2:	00 00       	nop
     8f4:	7d 07       	cpc	r23, r29
     8f6:	00 00       	nop
     8f8:	80 00       	.word	0x0080	; ????
     8fa:	00 00       	nop
     8fc:	00 00       	nop
     8fe:	00 00       	nop
     900:	b0 07       	cpc	r27, r16
     902:	00 00       	nop
     904:	80 00       	.word	0x0080	; ????
     906:	00 00       	nop
     908:	00 00       	nop
     90a:	00 00       	nop
     90c:	c4 07       	cpc	r28, r20
     90e:	00 00       	nop
     910:	82 00       	.word	0x0082	; ????
     912:	00 00       	nop
     914:	00 00       	nop
     916:	00 00       	nop
     918:	e2 07       	cpc	r30, r18
     91a:	00 00       	nop
     91c:	82 00       	.word	0x0082	; ????
     91e:	00 00       	nop
     920:	00 00       	nop
     922:	00 00       	nop
     924:	06 08       	sbc	r0, r6
     926:	00 00       	nop
     928:	82 00       	.word	0x0082	; ????
     92a:	00 00       	nop
     92c:	25 0f       	add	r18, r21
     92e:	00 00       	nop
     930:	26 08       	sbc	r2, r6
     932:	00 00       	nop
     934:	82 00       	.word	0x0082	; ????
     936:	00 00       	nop
     938:	00 00       	nop
     93a:	00 00       	nop
     93c:	4e 08       	sbc	r4, r14
     93e:	00 00       	nop
     940:	82 00       	.word	0x0082	; ????
     942:	00 00       	nop
     944:	33 b8       	out	0x03, r3	; 3
     946:	00 00       	nop
     948:	6c 08       	sbc	r6, r12
     94a:	00 00       	nop
     94c:	80 00       	.word	0x0080	; ????
     94e:	79 00       	.word	0x0079	; ????
     950:	00 00       	nop
     952:	00 00       	nop
     954:	81 08       	sbc	r8, r1
     956:	00 00       	nop
     958:	80 00       	.word	0x0080	; ????
     95a:	7a 00       	.word	0x007a	; ????
     95c:	00 00       	nop
     95e:	00 00       	nop
     960:	97 08       	sbc	r9, r7
     962:	00 00       	nop
     964:	80 00       	.word	0x0080	; ????
     966:	7b 00       	.word	0x007b	; ????
     968:	00 00       	nop
     96a:	00 00       	nop
     96c:	ac 08       	sbc	r10, r12
     96e:	00 00       	nop
     970:	80 00       	.word	0x0080	; ????
     972:	7c 00       	.word	0x007c	; ????
     974:	00 00       	nop
     976:	00 00       	nop
     978:	c2 08       	sbc	r12, r2
     97a:	00 00       	nop
     97c:	80 00       	.word	0x0080	; ????
     97e:	7d 00       	.word	0x007d	; ????
     980:	00 00       	nop
     982:	00 00       	nop
     984:	d7 08       	sbc	r13, r7
     986:	00 00       	nop
     988:	80 00       	.word	0x0080	; ????
     98a:	7e 00       	.word	0x007e	; ????
     98c:	00 00       	nop
     98e:	00 00       	nop
     990:	ed 08       	sbc	r14, r13
     992:	00 00       	nop
     994:	80 00       	.word	0x0080	; ????
     996:	80 00       	.word	0x0080	; ????
     998:	00 00       	nop
     99a:	00 00       	nop
     99c:	02 09       	sbc	r16, r2
     99e:	00 00       	nop
     9a0:	80 00       	.word	0x0080	; ????
     9a2:	81 00       	.word	0x0081	; ????
     9a4:	00 00       	nop
     9a6:	00 00       	nop
     9a8:	18 09       	sbc	r17, r8
     9aa:	00 00       	nop
     9ac:	80 00       	.word	0x0080	; ????
     9ae:	8e 00       	.word	0x008e	; ????
     9b0:	00 00       	nop
     9b2:	00 00       	nop
     9b4:	2e 09       	sbc	r18, r14
     9b6:	00 00       	nop
     9b8:	80 00       	.word	0x0080	; ????
     9ba:	93 00       	.word	0x0093	; ????
     9bc:	00 00       	nop
     9be:	00 00       	nop
     9c0:	46 09       	sbc	r20, r6
     9c2:	00 00       	nop
     9c4:	80 00       	.word	0x0080	; ????
     9c6:	9f 00       	.word	0x009f	; ????
     9c8:	00 00       	nop
     9ca:	00 00       	nop
     9cc:	61 09       	sbc	r22, r1
     9ce:	00 00       	nop
     9d0:	80 00       	.word	0x0080	; ????
     9d2:	a4 00       	.word	0x00a4	; ????
     9d4:	00 00       	nop
     9d6:	00 00       	nop
     9d8:	7d 09       	sbc	r23, r13
     9da:	00 00       	nop
     9dc:	80 00       	.word	0x0080	; ????
     9de:	a9 00       	.word	0x00a9	; ????
     9e0:	00 00       	nop
     9e2:	00 00       	nop
     9e4:	99 09       	sbc	r25, r9
     9e6:	00 00       	nop
     9e8:	80 00       	.word	0x0080	; ????
     9ea:	ae 00       	.word	0x00ae	; ????
     9ec:	00 00       	nop
     9ee:	00 00       	nop
     9f0:	b6 09       	sbc	r27, r6
     9f2:	00 00       	nop
     9f4:	80 00       	.word	0x0080	; ????
     9f6:	b3 00       	.word	0x00b3	; ????
     9f8:	00 00       	nop
     9fa:	00 00       	nop
     9fc:	d2 09       	sbc	r29, r2
     9fe:	00 00       	nop
     a00:	80 00       	.word	0x0080	; ????
     a02:	b8 00       	.word	0x00b8	; ????
     a04:	00 00       	nop
     a06:	00 00       	nop
     a08:	ef 09       	sbc	r30, r15
     a0a:	00 00       	nop
     a0c:	80 00       	.word	0x0080	; ????
     a0e:	c0 00       	.word	0x00c0	; ????
     a10:	00 00       	nop
     a12:	00 00       	nop
     a14:	0b 0a       	sbc	r0, r27
     a16:	00 00       	nop
     a18:	80 00       	.word	0x0080	; ????
     a1a:	c7 00       	.word	0x00c7	; ????
     a1c:	00 00       	nop
     a1e:	00 00       	nop
     a20:	28 0a       	sbc	r2, r24
     a22:	00 00       	nop
     a24:	80 00       	.word	0x0080	; ????
     a26:	d5 00       	.word	0x00d5	; ????
     a28:	00 00       	nop
     a2a:	00 00       	nop
     a2c:	42 0a       	sbc	r4, r18
     a2e:	00 00       	nop
     a30:	80 00       	.word	0x0080	; ????
     a32:	da 00       	.word	0x00da	; ????
     a34:	00 00       	nop
     a36:	00 00       	nop
     a38:	5d 0a       	sbc	r5, r29
     a3a:	00 00       	nop
     a3c:	80 00       	.word	0x0080	; ????
     a3e:	df 00       	.word	0x00df	; ????
     a40:	00 00       	nop
     a42:	00 00       	nop
     a44:	78 0a       	sbc	r7, r24
     a46:	00 00       	nop
     a48:	80 00       	.word	0x0080	; ????
     a4a:	e4 00       	.word	0x00e4	; ????
     a4c:	00 00       	nop
     a4e:	00 00       	nop
     a50:	94 0a       	sbc	r9, r20
     a52:	00 00       	nop
     a54:	80 00       	.word	0x0080	; ????
     a56:	e9 00       	.word	0x00e9	; ????
     a58:	00 00       	nop
     a5a:	00 00       	nop
     a5c:	af 0a       	sbc	r10, r31
     a5e:	00 00       	nop
     a60:	80 00       	.word	0x0080	; ????
     a62:	ee 00       	.word	0x00ee	; ????
     a64:	00 00       	nop
     a66:	00 00       	nop
     a68:	cb 0a       	sbc	r12, r27
     a6a:	00 00       	nop
     a6c:	80 00       	.word	0x0080	; ????
     a6e:	f6 00       	.word	0x00f6	; ????
     a70:	00 00       	nop
     a72:	00 00       	nop
     a74:	e6 0a       	sbc	r14, r22
     a76:	00 00       	nop
     a78:	80 00       	.word	0x0080	; ????
     a7a:	fd 00       	.word	0x00fd	; ????
     a7c:	00 00       	nop
     a7e:	00 00       	nop
     a80:	02 0b       	sbc	r16, r18
     a82:	00 00       	nop
     a84:	80 00       	.word	0x0080	; ????
     a86:	11 01       	movw	r2, r2
     a88:	00 00       	nop
     a8a:	00 00       	nop
     a8c:	19 0b       	sbc	r17, r25
     a8e:	00 00       	nop
     a90:	80 00       	.word	0x0080	; ????
     a92:	16 01       	movw	r2, r12
	...
     a9c:	a2 00       	.word	0x00a2	; ????
	...
     aa6:	00 00       	nop
     aa8:	a2 00       	.word	0x00a2	; ????
     aaa:	00 00       	nop
     aac:	00 00       	nop
     aae:	00 00       	nop
     ab0:	31 0b       	sbc	r19, r17
     ab2:	00 00       	nop
     ab4:	80 00       	.word	0x0080	; ????
     ab6:	4d 00       	.word	0x004d	; ????
     ab8:	00 00       	nop
     aba:	00 00       	nop
     abc:	4b 0b       	sbc	r20, r27
     abe:	00 00       	nop
     ac0:	80 00       	.word	0x0080	; ????
     ac2:	51 00       	.word	0x0051	; ????
	...
     acc:	a2 00       	.word	0x00a2	; ????
	...
     ad6:	00 00       	nop
     ad8:	a2 00       	.word	0x00a2	; ????
     ada:	00 00       	nop
     adc:	00 00       	nop
     ade:	00 00       	nop
     ae0:	66 0b       	sbc	r22, r22
     ae2:	00 00       	nop
     ae4:	82 00       	.word	0x0082	; ????
     ae6:	00 00       	nop
     ae8:	cb 0d       	add	r28, r11
     aea:	00 00       	nop
     aec:	86 0b       	sbc	r24, r22
     aee:	00 00       	nop
     af0:	80 00       	.word	0x0080	; ????
     af2:	fc 00       	.word	0x00fc	; ????
	...
     afc:	a2 00       	.word	0x00a2	; ????
	...
     b06:	00 00       	nop
     b08:	a2 00       	.word	0x00a2	; ????
     b0a:	00 00       	nop
     b0c:	00 00       	nop
     b0e:	00 00       	nop
     b10:	bf 0b       	sbc	r27, r31
     b12:	00 00       	nop
     b14:	82 00       	.word	0x0082	; ????
     b16:	00 00       	nop
     b18:	00 00       	nop
     b1a:	00 00       	nop
     b1c:	e1 0b       	sbc	r30, r17
     b1e:	00 00       	nop
     b20:	82 00       	.word	0x0082	; ????
     b22:	00 00       	nop
     b24:	13 10       	cpse	r1, r3
     b26:	00 00       	nop
     b28:	09 0c       	add	r0, r9
     b2a:	00 00       	nop
     b2c:	80 00       	.word	0x0080	; ????
     b2e:	93 00       	.word	0x0093	; ????
     b30:	00 00       	nop
     b32:	00 00       	nop
     b34:	20 0c       	add	r2, r0
     b36:	00 00       	nop
     b38:	80 00       	.word	0x0080	; ????
     b3a:	d4 00       	.word	0x00d4	; ????
     b3c:	00 00       	nop
     b3e:	00 00       	nop
     b40:	34 0c       	add	r3, r4
     b42:	00 00       	nop
     b44:	80 00       	.word	0x0080	; ????
     b46:	44 01       	movw	r8, r8
	...
     b50:	a2 00       	.word	0x00a2	; ????
	...
     b5a:	00 00       	nop
     b5c:	a2 00       	.word	0x00a2	; ????
     b5e:	00 00       	nop
     b60:	00 00       	nop
     b62:	00 00       	nop
     b64:	49 0c       	add	r4, r9
     b66:	00 00       	nop
     b68:	24 00       	.word	0x0024	; ????
     b6a:	a0 00       	.word	0x00a0	; ????
     b6c:	5e 02       	muls	r21, r30
     b6e:	00 00       	nop
     b70:	00 00       	nop
     b72:	00 00       	nop
     b74:	2e 00       	.word	0x002e	; ????
     b76:	00 00       	nop
     b78:	5e 02       	muls	r21, r30
     b7a:	00 00       	nop
     b7c:	00 00       	nop
     b7e:	00 00       	nop
     b80:	44 00       	.word	0x0044	; ????
     b82:	a1 00       	.word	0x00a1	; ????
	...
     b8c:	44 00       	.word	0x0044	; ????
     b8e:	a2 00       	.word	0x00a2	; ????
	...
     b98:	44 00       	.word	0x0044	; ????
     b9a:	a4 00       	.word	0x00a4	; ????
     b9c:	08 00       	.word	0x0008	; ????
     b9e:	00 00       	nop
     ba0:	00 00       	nop
     ba2:	00 00       	nop
     ba4:	44 00       	.word	0x0044	; ????
     ba6:	ae 00       	.word	0x00ae	; ????
     ba8:	0c 00       	.word	0x000c	; ????
     baa:	00 00       	nop
     bac:	00 00       	nop
     bae:	00 00       	nop
     bb0:	44 00       	.word	0x0044	; ????
     bb2:	af 00       	.word	0x00af	; ????
     bb4:	12 00       	.word	0x0012	; ????
     bb6:	00 00       	nop
     bb8:	00 00       	nop
     bba:	00 00       	nop
     bbc:	44 00       	.word	0x0044	; ????
     bbe:	b0 00       	.word	0x00b0	; ????
     bc0:	22 00       	.word	0x0022	; ????
     bc2:	00 00       	nop
     bc4:	00 00       	nop
     bc6:	00 00       	nop
     bc8:	44 00       	.word	0x0044	; ????
     bca:	b2 00       	.word	0x00b2	; ????
     bcc:	2e 00       	.word	0x002e	; ????
     bce:	00 00       	nop
     bd0:	00 00       	nop
     bd2:	00 00       	nop
     bd4:	44 00       	.word	0x0044	; ????
     bd6:	b9 00       	.word	0x00b9	; ????
     bd8:	30 00       	.word	0x0030	; ????
     bda:	00 00       	nop
     bdc:	00 00       	nop
     bde:	00 00       	nop
     be0:	44 00       	.word	0x0044	; ????
     be2:	ba 00       	.word	0x00ba	; ????
     be4:	34 00       	.word	0x0034	; ????
     be6:	00 00       	nop
     be8:	00 00       	nop
     bea:	00 00       	nop
     bec:	44 00       	.word	0x0044	; ????
     bee:	a6 00       	.word	0x00a6	; ????
     bf0:	3a 00       	.word	0x003a	; ????
     bf2:	00 00       	nop
     bf4:	00 00       	nop
     bf6:	00 00       	nop
     bf8:	44 00       	.word	0x0044	; ????
     bfa:	a7 00       	.word	0x00a7	; ????
     bfc:	3e 00       	.word	0x003e	; ????
     bfe:	00 00       	nop
     c00:	00 00       	nop
     c02:	00 00       	nop
     c04:	44 00       	.word	0x0044	; ????
     c06:	a8 00       	.word	0x00a8	; ????
     c08:	40 00       	.word	0x0040	; ????
     c0a:	00 00       	nop
     c0c:	00 00       	nop
     c0e:	00 00       	nop
     c10:	44 00       	.word	0x0044	; ????
     c12:	a9 00       	.word	0x00a9	; ????
     c14:	4c 00       	.word	0x004c	; ????
     c16:	00 00       	nop
     c18:	00 00       	nop
     c1a:	00 00       	nop
     c1c:	44 00       	.word	0x0044	; ????
     c1e:	b6 00       	.word	0x00b6	; ????
     c20:	54 00       	.word	0x0054	; ????
     c22:	00 00       	nop
     c24:	00 00       	nop
     c26:	00 00       	nop
     c28:	44 00       	.word	0x0044	; ????
     c2a:	b7 00       	.word	0x00b7	; ????
     c2c:	56 00       	.word	0x0056	; ????
     c2e:	00 00       	nop
     c30:	00 00       	nop
     c32:	00 00       	nop
     c34:	24 00       	.word	0x0024	; ????
     c36:	00 00       	nop
     c38:	6e 00       	.word	0x006e	; ????
     c3a:	00 00       	nop
     c3c:	00 00       	nop
     c3e:	00 00       	nop
     c40:	4e 00       	.word	0x004e	; ????
     c42:	00 00       	nop
     c44:	cc 02       	muls	r28, r28
     c46:	00 00       	nop
     c48:	58 0c       	add	r5, r8
     c4a:	00 00       	nop
     c4c:	24 00       	.word	0x0024	; ????
     c4e:	c0 00       	.word	0x00c0	; ????
     c50:	cc 02       	muls	r28, r28
     c52:	00 00       	nop
     c54:	00 00       	nop
     c56:	00 00       	nop
     c58:	2e 00       	.word	0x002e	; ????
     c5a:	00 00       	nop
     c5c:	cc 02       	muls	r28, r28
     c5e:	00 00       	nop
     c60:	00 00       	nop
     c62:	00 00       	nop
     c64:	44 00       	.word	0x0044	; ????
     c66:	c1 00       	.word	0x00c1	; ????
	...
     c70:	44 00       	.word	0x0044	; ????
     c72:	a2 00       	.word	0x00a2	; ????
	...
     c7c:	44 00       	.word	0x0044	; ????
     c7e:	a4 00       	.word	0x00a4	; ????
     c80:	08 00       	.word	0x0008	; ????
     c82:	00 00       	nop
     c84:	00 00       	nop
     c86:	00 00       	nop
     c88:	44 00       	.word	0x0044	; ????
     c8a:	ae 00       	.word	0x00ae	; ????
     c8c:	0c 00       	.word	0x000c	; ????
     c8e:	00 00       	nop
     c90:	00 00       	nop
     c92:	00 00       	nop
     c94:	44 00       	.word	0x0044	; ????
     c96:	af 00       	.word	0x00af	; ????
     c98:	12 00       	.word	0x0012	; ????
     c9a:	00 00       	nop
     c9c:	00 00       	nop
     c9e:	00 00       	nop
     ca0:	44 00       	.word	0x0044	; ????
     ca2:	b0 00       	.word	0x00b0	; ????
     ca4:	22 00       	.word	0x0022	; ????
     ca6:	00 00       	nop
     ca8:	00 00       	nop
     caa:	00 00       	nop
     cac:	44 00       	.word	0x0044	; ????
     cae:	b2 00       	.word	0x00b2	; ????
     cb0:	2e 00       	.word	0x002e	; ????
     cb2:	00 00       	nop
     cb4:	00 00       	nop
     cb6:	00 00       	nop
     cb8:	44 00       	.word	0x0044	; ????
     cba:	b9 00       	.word	0x00b9	; ????
     cbc:	30 00       	.word	0x0030	; ????
     cbe:	00 00       	nop
     cc0:	00 00       	nop
     cc2:	00 00       	nop
     cc4:	44 00       	.word	0x0044	; ????
     cc6:	ba 00       	.word	0x00ba	; ????
     cc8:	34 00       	.word	0x0034	; ????
     cca:	00 00       	nop
     ccc:	00 00       	nop
     cce:	00 00       	nop
     cd0:	44 00       	.word	0x0044	; ????
     cd2:	c4 00       	.word	0x00c4	; ????
     cd4:	3c 00       	.word	0x003c	; ????
     cd6:	00 00       	nop
     cd8:	00 00       	nop
     cda:	00 00       	nop
     cdc:	44 00       	.word	0x0044	; ????
     cde:	c5 00       	.word	0x00c5	; ????
     ce0:	46 00       	.word	0x0046	; ????
     ce2:	00 00       	nop
     ce4:	00 00       	nop
     ce6:	00 00       	nop
     ce8:	44 00       	.word	0x0044	; ????
     cea:	c5 00       	.word	0x00c5	; ????
     cec:	4a 00       	.word	0x004a	; ????
     cee:	00 00       	nop
     cf0:	00 00       	nop
     cf2:	00 00       	nop
     cf4:	44 00       	.word	0x0044	; ????
     cf6:	cd 00       	.word	0x00cd	; ????
     cf8:	56 00       	.word	0x0056	; ????
     cfa:	00 00       	nop
     cfc:	00 00       	nop
     cfe:	00 00       	nop
     d00:	44 00       	.word	0x0044	; ????
     d02:	ce 00       	.word	0x00ce	; ????
     d04:	5c 00       	.word	0x005c	; ????
     d06:	00 00       	nop
     d08:	00 00       	nop
     d0a:	00 00       	nop
     d0c:	44 00       	.word	0x0044	; ????
     d0e:	d0 00       	.word	0x00d0	; ????
     d10:	60 00       	.word	0x0060	; ????
     d12:	00 00       	nop
     d14:	00 00       	nop
     d16:	00 00       	nop
     d18:	44 00       	.word	0x0044	; ????
     d1a:	d1 00       	.word	0x00d1	; ????
     d1c:	64 00       	.word	0x0064	; ????
     d1e:	00 00       	nop
     d20:	00 00       	nop
     d22:	00 00       	nop
     d24:	44 00       	.word	0x0044	; ????
     d26:	d7 00       	.word	0x00d7	; ????
     d28:	72 00       	.word	0x0072	; ????
     d2a:	00 00       	nop
     d2c:	00 00       	nop
     d2e:	00 00       	nop
     d30:	44 00       	.word	0x0044	; ????
     d32:	da 00       	.word	0x00da	; ????
     d34:	82 00       	.word	0x0082	; ????
     d36:	00 00       	nop
     d38:	00 00       	nop
     d3a:	00 00       	nop
     d3c:	44 00       	.word	0x0044	; ????
     d3e:	c7 00       	.word	0x00c7	; ????
     d40:	86 00       	.word	0x0086	; ????
     d42:	00 00       	nop
     d44:	00 00       	nop
     d46:	00 00       	nop
     d48:	44 00       	.word	0x0044	; ????
     d4a:	c8 00       	.word	0x00c8	; ????
     d4c:	8a 00       	.word	0x008a	; ????
     d4e:	00 00       	nop
     d50:	00 00       	nop
     d52:	00 00       	nop
     d54:	44 00       	.word	0x0044	; ????
     d56:	c9 00       	.word	0x00c9	; ????
     d58:	9c 00       	.word	0x009c	; ????
     d5a:	00 00       	nop
     d5c:	00 00       	nop
     d5e:	00 00       	nop
     d60:	44 00       	.word	0x0044	; ????
     d62:	cd 00       	.word	0x00cd	; ????
     d64:	9e 00       	.word	0x009e	; ????
     d66:	00 00       	nop
     d68:	00 00       	nop
     d6a:	00 00       	nop
     d6c:	44 00       	.word	0x0044	; ????
     d6e:	ce 00       	.word	0x00ce	; ????
     d70:	a4 00       	.word	0x00a4	; ????
     d72:	00 00       	nop
     d74:	00 00       	nop
     d76:	00 00       	nop
     d78:	44 00       	.word	0x0044	; ????
     d7a:	cd 00       	.word	0x00cd	; ????
     d7c:	a8 00       	.word	0x00a8	; ????
     d7e:	00 00       	nop
     d80:	00 00       	nop
     d82:	00 00       	nop
     d84:	44 00       	.word	0x0044	; ????
     d86:	da 00       	.word	0x00da	; ????
     d88:	ac 00       	.word	0x00ac	; ????
     d8a:	00 00       	nop
     d8c:	00 00       	nop
     d8e:	00 00       	nop
     d90:	44 00       	.word	0x0044	; ????
     d92:	d3 00       	.word	0x00d3	; ????
     d94:	b0 00       	.word	0x00b0	; ????
     d96:	00 00       	nop
     d98:	00 00       	nop
     d9a:	00 00       	nop
     d9c:	44 00       	.word	0x0044	; ????
     d9e:	da 00       	.word	0x00da	; ????
     da0:	c0 00       	.word	0x00c0	; ????
     da2:	00 00       	nop
     da4:	00 00       	nop
     da6:	00 00       	nop
     da8:	44 00       	.word	0x0044	; ????
     daa:	a6 00       	.word	0x00a6	; ????
     dac:	c4 00       	.word	0x00c4	; ????
     dae:	00 00       	nop
     db0:	00 00       	nop
     db2:	00 00       	nop
     db4:	44 00       	.word	0x0044	; ????
     db6:	a7 00       	.word	0x00a7	; ????
     db8:	c8 00       	.word	0x00c8	; ????
     dba:	00 00       	nop
     dbc:	00 00       	nop
     dbe:	00 00       	nop
     dc0:	44 00       	.word	0x0044	; ????
     dc2:	a8 00       	.word	0x00a8	; ????
     dc4:	ca 00       	.word	0x00ca	; ????
     dc6:	00 00       	nop
     dc8:	00 00       	nop
     dca:	00 00       	nop
     dcc:	44 00       	.word	0x0044	; ????
     dce:	a9 00       	.word	0x00a9	; ????
     dd0:	d6 00       	.word	0x00d6	; ????
     dd2:	00 00       	nop
     dd4:	00 00       	nop
     dd6:	00 00       	nop
     dd8:	44 00       	.word	0x0044	; ????
     dda:	d7 00       	.word	0x00d7	; ????
     ddc:	e0 00       	.word	0x00e0	; ????
     dde:	00 00       	nop
     de0:	00 00       	nop
     de2:	00 00       	nop
     de4:	44 00       	.word	0x0044	; ????
     de6:	d3 00       	.word	0x00d3	; ????
     de8:	e4 00       	.word	0x00e4	; ????
     dea:	00 00       	nop
     dec:	00 00       	nop
     dee:	00 00       	nop
     df0:	44 00       	.word	0x0044	; ????
     df2:	b6 00       	.word	0x00b6	; ????
     df4:	ee 00       	.word	0x00ee	; ????
     df6:	00 00       	nop
     df8:	00 00       	nop
     dfa:	00 00       	nop
     dfc:	44 00       	.word	0x0044	; ????
     dfe:	b7 00       	.word	0x00b7	; ????
     e00:	f0 00       	.word	0x00f0	; ????
     e02:	00 00       	nop
     e04:	6c 0c       	add	r6, r12
     e06:	00 00       	nop
     e08:	28 00       	.word	0x0028	; ????
     e0a:	c2 00       	.word	0x00c2	; ????
     e0c:	66 00       	.word	0x0066	; ????
     e0e:	80 00       	.word	0x0080	; ????
     e10:	7c 0c       	add	r7, r12
     e12:	00 00       	nop
     e14:	26 00       	.word	0x0026	; ????
     e16:	cc 00       	.word	0x00cc	; ????
     e18:	65 00       	.word	0x0065	; ????
     e1a:	80 00       	.word	0x0080	; ????
     e1c:	00 00       	nop
     e1e:	00 00       	nop
     e20:	c0 00       	.word	0x00c0	; ????
	...
     e2a:	00 00       	nop
     e2c:	e0 00       	.word	0x00e0	; ????
     e2e:	00 00       	nop
     e30:	08 01       	movw	r0, r16
     e32:	00 00       	nop
     e34:	00 00       	nop
     e36:	00 00       	nop
     e38:	24 00       	.word	0x0024	; ????
     e3a:	00 00       	nop
     e3c:	08 01       	movw	r0, r16
     e3e:	00 00       	nop
     e40:	00 00       	nop
     e42:	00 00       	nop
     e44:	4e 00       	.word	0x004e	; ????
     e46:	00 00       	nop
     e48:	d4 03       	fmuls	r21, r20
     e4a:	00 00       	nop
     e4c:	92 0c       	add	r9, r2
     e4e:	00 00       	nop
     e50:	24 00       	.word	0x0024	; ????
     e52:	dd 00       	.word	0x00dd	; ????
     e54:	d4 03       	fmuls	r21, r20
     e56:	00 00       	nop
     e58:	00 00       	nop
     e5a:	00 00       	nop
     e5c:	2e 00       	.word	0x002e	; ????
     e5e:	00 00       	nop
     e60:	d4 03       	fmuls	r21, r20
     e62:	00 00       	nop
     e64:	00 00       	nop
     e66:	00 00       	nop
     e68:	44 00       	.word	0x0044	; ????
     e6a:	de 00       	.word	0x00de	; ????
	...
     e74:	44 00       	.word	0x0044	; ????
     e76:	df 00       	.word	0x00df	; ????
     e78:	2c 00       	.word	0x002c	; ????
     e7a:	00 00       	nop
     e7c:	00 00       	nop
     e7e:	00 00       	nop
     e80:	44 00       	.word	0x0044	; ????
     e82:	e0 00       	.word	0x00e0	; ????
     e84:	34 00       	.word	0x0034	; ????
     e86:	00 00       	nop
     e88:	00 00       	nop
     e8a:	00 00       	nop
     e8c:	44 00       	.word	0x0044	; ????
     e8e:	e1 00       	.word	0x00e1	; ????
     e90:	3a 00       	.word	0x003a	; ????
     e92:	00 00       	nop
     e94:	00 00       	nop
     e96:	00 00       	nop
     e98:	44 00       	.word	0x0044	; ????
     e9a:	e5 00       	.word	0x00e5	; ????
     e9c:	42 00       	.word	0x0042	; ????
     e9e:	00 00       	nop
     ea0:	00 00       	nop
     ea2:	00 00       	nop
     ea4:	44 00       	.word	0x0044	; ????
     ea6:	e6 00       	.word	0x00e6	; ????
     ea8:	44 00       	.word	0x0044	; ????
     eaa:	00 00       	nop
     eac:	00 00       	nop
     eae:	00 00       	nop
     eb0:	44 00       	.word	0x0044	; ????
     eb2:	e7 00       	.word	0x00e7	; ????
     eb4:	46 00       	.word	0x0046	; ????
     eb6:	00 00       	nop
     eb8:	00 00       	nop
     eba:	00 00       	nop
     ebc:	44 00       	.word	0x0044	; ????
     ebe:	e7 00       	.word	0x00e7	; ????
     ec0:	4e 00       	.word	0x004e	; ????
     ec2:	00 00       	nop
     ec4:	00 00       	nop
     ec6:	00 00       	nop
     ec8:	44 00       	.word	0x0044	; ????
     eca:	ea 00       	.word	0x00ea	; ????
     ecc:	56 00       	.word	0x0056	; ????
     ece:	00 00       	nop
     ed0:	00 00       	nop
     ed2:	00 00       	nop
     ed4:	44 00       	.word	0x0044	; ????
     ed6:	1e 01       	movw	r2, r28
     ed8:	5c 00       	.word	0x005c	; ????
     eda:	00 00       	nop
     edc:	00 00       	nop
     ede:	00 00       	nop
     ee0:	44 00       	.word	0x0044	; ????
     ee2:	f0 00       	.word	0x00f0	; ????
     ee4:	86 00       	.word	0x0086	; ????
     ee6:	00 00       	nop
     ee8:	00 00       	nop
     eea:	00 00       	nop
     eec:	44 00       	.word	0x0044	; ????
     eee:	f3 00       	.word	0x00f3	; ????
     ef0:	90 00       	.word	0x0090	; ????
     ef2:	00 00       	nop
     ef4:	00 00       	nop
     ef6:	00 00       	nop
     ef8:	44 00       	.word	0x0044	; ????
     efa:	f4 00       	.word	0x00f4	; ????
     efc:	96 00       	.word	0x0096	; ????
     efe:	00 00       	nop
     f00:	00 00       	nop
     f02:	00 00       	nop
     f04:	44 00       	.word	0x0044	; ????
     f06:	f8 00       	.word	0x00f8	; ????
     f08:	98 00       	.word	0x0098	; ????
     f0a:	00 00       	nop
     f0c:	00 00       	nop
     f0e:	00 00       	nop
     f10:	44 00       	.word	0x0044	; ????
     f12:	f8 00       	.word	0x00f8	; ????
     f14:	a4 00       	.word	0x00a4	; ????
     f16:	00 00       	nop
     f18:	00 00       	nop
     f1a:	00 00       	nop
     f1c:	44 00       	.word	0x0044	; ????
     f1e:	fa 00       	.word	0x00fa	; ????
     f20:	b6 00       	.word	0x00b6	; ????
     f22:	00 00       	nop
     f24:	00 00       	nop
     f26:	00 00       	nop
     f28:	44 00       	.word	0x0044	; ????
     f2a:	fb 00       	.word	0x00fb	; ????
     f2c:	b8 00       	.word	0x00b8	; ????
     f2e:	00 00       	nop
     f30:	00 00       	nop
     f32:	00 00       	nop
     f34:	44 00       	.word	0x0044	; ????
     f36:	fd 00       	.word	0x00fd	; ????
     f38:	c0 00       	.word	0x00c0	; ????
     f3a:	00 00       	nop
     f3c:	00 00       	nop
     f3e:	00 00       	nop
     f40:	44 00       	.word	0x0044	; ????
     f42:	00 01       	movw	r0, r0
     f44:	c4 00       	.word	0x00c4	; ????
     f46:	00 00       	nop
     f48:	00 00       	nop
     f4a:	00 00       	nop
     f4c:	44 00       	.word	0x0044	; ????
     f4e:	01 01       	movw	r0, r2
     f50:	ca 00       	.word	0x00ca	; ????
     f52:	00 00       	nop
     f54:	00 00       	nop
     f56:	00 00       	nop
     f58:	44 00       	.word	0x0044	; ????
     f5a:	05 01       	movw	r0, r10
     f5c:	d4 00       	.word	0x00d4	; ????
     f5e:	00 00       	nop
     f60:	00 00       	nop
     f62:	00 00       	nop
     f64:	44 00       	.word	0x0044	; ????
     f66:	06 01       	movw	r0, r12
     f68:	e0 00       	.word	0x00e0	; ????
     f6a:	00 00       	nop
     f6c:	00 00       	nop
     f6e:	00 00       	nop
     f70:	44 00       	.word	0x0044	; ????
     f72:	07 01       	movw	r0, r14
     f74:	00 01       	movw	r0, r0
     f76:	00 00       	nop
     f78:	00 00       	nop
     f7a:	00 00       	nop
     f7c:	44 00       	.word	0x0044	; ????
     f7e:	0b 01       	movw	r0, r22
     f80:	16 01       	movw	r2, r12
     f82:	00 00       	nop
     f84:	00 00       	nop
     f86:	00 00       	nop
     f88:	44 00       	.word	0x0044	; ????
     f8a:	0c 01       	movw	r0, r24
     f8c:	24 01       	movw	r4, r8
     f8e:	00 00       	nop
     f90:	00 00       	nop
     f92:	00 00       	nop
     f94:	44 00       	.word	0x0044	; ????
     f96:	16 01       	movw	r2, r12
     f98:	26 01       	movw	r4, r12
     f9a:	00 00       	nop
     f9c:	00 00       	nop
     f9e:	00 00       	nop
     fa0:	44 00       	.word	0x0044	; ????
     fa2:	17 01       	movw	r2, r14
     fa4:	30 01       	movw	r6, r0
     fa6:	00 00       	nop
     fa8:	00 00       	nop
     faa:	00 00       	nop
     fac:	44 00       	.word	0x0044	; ????
     fae:	19 01       	movw	r2, r18
     fb0:	3a 01       	movw	r6, r20
     fb2:	00 00       	nop
     fb4:	00 00       	nop
     fb6:	00 00       	nop
     fb8:	44 00       	.word	0x0044	; ????
     fba:	05 01       	movw	r0, r10
     fbc:	40 01       	movw	r8, r0
     fbe:	00 00       	nop
     fc0:	00 00       	nop
     fc2:	00 00       	nop
     fc4:	44 00       	.word	0x0044	; ????
     fc6:	11 01       	movw	r2, r2
     fc8:	4a 01       	movw	r8, r20
     fca:	00 00       	nop
     fcc:	00 00       	nop
     fce:	00 00       	nop
     fd0:	44 00       	.word	0x0044	; ????
     fd2:	12 01       	movw	r2, r4
     fd4:	4c 01       	movw	r8, r24
     fd6:	00 00       	nop
     fd8:	a6 0c       	add	r10, r6
     fda:	00 00       	nop
     fdc:	80 00       	.word	0x0080	; ????
     fde:	f8 00       	.word	0x00f8	; ????
     fe0:	01 00       	.word	0x0001	; ????
     fe2:	00 00       	nop
     fe4:	00 00       	nop
     fe6:	00 00       	nop
     fe8:	c0 00       	.word	0x00c0	; ????
     fea:	00 00       	nop
     fec:	98 00       	.word	0x0098	; ????
     fee:	00 00       	nop
     ff0:	00 00       	nop
     ff2:	00 00       	nop
     ff4:	e0 00       	.word	0x00e0	; ????
     ff6:	00 00       	nop
     ff8:	b6 00       	.word	0x00b6	; ????
     ffa:	00 00       	nop
     ffc:	00 00       	nop
     ffe:	00 00       	nop
    1000:	24 00       	.word	0x0024	; ????
    1002:	00 00       	nop
    1004:	50 01       	movw	r10, r0
    1006:	00 00       	nop
    1008:	00 00       	nop
    100a:	00 00       	nop
    100c:	4e 00       	.word	0x004e	; ????
    100e:	00 00       	nop
    1010:	24 05       	cpc	r18, r4
    1012:	00 00       	nop
    1014:	b6 0c       	add	r11, r6
    1016:	00 00       	nop
    1018:	24 00       	.word	0x0024	; ????
    101a:	23 01       	movw	r4, r6
    101c:	24 05       	cpc	r18, r4
    101e:	00 00       	nop
    1020:	00 00       	nop
    1022:	00 00       	nop
    1024:	2e 00       	.word	0x002e	; ????
    1026:	00 00       	nop
    1028:	24 05       	cpc	r18, r4
    102a:	00 00       	nop
    102c:	00 00       	nop
    102e:	00 00       	nop
    1030:	44 00       	.word	0x0044	; ????
    1032:	24 01       	movw	r4, r8
	...
    103c:	44 00       	.word	0x0044	; ????
    103e:	26 01       	movw	r4, r12
    1040:	0a 00       	.word	0x000a	; ????
    1042:	00 00       	nop
    1044:	00 00       	nop
    1046:	00 00       	nop
    1048:	24 00       	.word	0x0024	; ????
    104a:	00 00       	nop
    104c:	14 00       	.word	0x0014	; ????
    104e:	00 00       	nop
    1050:	00 00       	nop
    1052:	00 00       	nop
    1054:	4e 00       	.word	0x004e	; ????
    1056:	00 00       	nop
    1058:	38 05       	cpc	r19, r8
    105a:	00 00       	nop
    105c:	ca 0c       	add	r12, r10
    105e:	00 00       	nop
    1060:	24 00       	.word	0x0024	; ????
    1062:	29 01       	movw	r4, r18
    1064:	38 05       	cpc	r19, r8
    1066:	00 00       	nop
    1068:	00 00       	nop
    106a:	00 00       	nop
    106c:	2e 00       	.word	0x002e	; ????
    106e:	00 00       	nop
    1070:	38 05       	cpc	r19, r8
    1072:	00 00       	nop
    1074:	00 00       	nop
    1076:	00 00       	nop
    1078:	44 00       	.word	0x0044	; ????
    107a:	2a 01       	movw	r4, r20
	...
    1084:	44 00       	.word	0x0044	; ????
    1086:	3d 01       	movw	r6, r26
    1088:	14 00       	.word	0x0014	; ????
    108a:	00 00       	nop
    108c:	00 00       	nop
    108e:	00 00       	nop
    1090:	44 00       	.word	0x0044	; ????
    1092:	4d 01       	movw	r8, r26
    1094:	22 00       	.word	0x0022	; ????
    1096:	00 00       	nop
    1098:	00 00       	nop
    109a:	00 00       	nop
    109c:	44 00       	.word	0x0044	; ????
    109e:	4e 01       	movw	r8, r28
    10a0:	2a 00       	.word	0x002a	; ????
    10a2:	00 00       	nop
    10a4:	00 00       	nop
    10a6:	00 00       	nop
    10a8:	44 00       	.word	0x0044	; ????
    10aa:	5a 01       	movw	r10, r20
    10ac:	32 00       	.word	0x0032	; ????
    10ae:	00 00       	nop
    10b0:	00 00       	nop
    10b2:	00 00       	nop
    10b4:	44 00       	.word	0x0044	; ????
    10b6:	5c 01       	movw	r10, r24
    10b8:	4c 00       	.word	0x004c	; ????
    10ba:	00 00       	nop
    10bc:	00 00       	nop
    10be:	00 00       	nop
    10c0:	44 00       	.word	0x0044	; ????
    10c2:	6a 01       	movw	r12, r20
    10c4:	54 00       	.word	0x0054	; ????
    10c6:	00 00       	nop
    10c8:	00 00       	nop
    10ca:	00 00       	nop
    10cc:	44 00       	.word	0x0044	; ????
    10ce:	6c 01       	movw	r12, r24
    10d0:	5c 00       	.word	0x005c	; ????
    10d2:	00 00       	nop
    10d4:	00 00       	nop
    10d6:	00 00       	nop
    10d8:	44 00       	.word	0x0044	; ????
    10da:	50 01       	movw	r10, r0
    10dc:	70 00       	.word	0x0070	; ????
    10de:	00 00       	nop
    10e0:	00 00       	nop
    10e2:	00 00       	nop
    10e4:	44 00       	.word	0x0044	; ????
    10e6:	5f 01       	movw	r10, r30
    10e8:	7a 00       	.word	0x007a	; ????
    10ea:	00 00       	nop
    10ec:	00 00       	nop
    10ee:	00 00       	nop
    10f0:	44 00       	.word	0x0044	; ????
    10f2:	63 01       	movw	r12, r6
    10f4:	86 00       	.word	0x0086	; ????
    10f6:	00 00       	nop
    10f8:	00 00       	nop
    10fa:	00 00       	nop
    10fc:	44 00       	.word	0x0044	; ????
    10fe:	64 01       	movw	r12, r8
    1100:	88 00       	.word	0x0088	; ????
    1102:	00 00       	nop
    1104:	00 00       	nop
    1106:	00 00       	nop
    1108:	44 00       	.word	0x0044	; ????
    110a:	66 01       	movw	r12, r12
    110c:	92 00       	.word	0x0092	; ????
    110e:	00 00       	nop
    1110:	de 0c       	add	r13, r14
    1112:	00 00       	nop
    1114:	40 00       	.word	0x0040	; ????
    1116:	3d 01       	movw	r6, r26
    1118:	18 00       	.word	0x0018	; ????
    111a:	00 00       	nop
    111c:	00 00       	nop
    111e:	00 00       	nop
    1120:	c0 00       	.word	0x00c0	; ????
	...
    112a:	00 00       	nop
    112c:	e0 00       	.word	0x00e0	; ????
    112e:	00 00       	nop
    1130:	9c 00       	.word	0x009c	; ????
    1132:	00 00       	nop
    1134:	00 00       	nop
    1136:	00 00       	nop
    1138:	24 00       	.word	0x0024	; ????
    113a:	00 00       	nop
    113c:	9c 00       	.word	0x009c	; ????
    113e:	00 00       	nop
    1140:	00 00       	nop
    1142:	00 00       	nop
    1144:	4e 00       	.word	0x004e	; ????
    1146:	00 00       	nop
    1148:	d4 05       	cpc	r29, r4
    114a:	00 00       	nop
    114c:	eb 0c       	add	r14, r11
    114e:	00 00       	nop
    1150:	24 00       	.word	0x0024	; ????
    1152:	6e 01       	movw	r12, r28
    1154:	d4 05       	cpc	r29, r4
    1156:	00 00       	nop
    1158:	02 0d       	add	r16, r2
    115a:	00 00       	nop
    115c:	40 00       	.word	0x0040	; ????
    115e:	6e 01       	movw	r12, r28
    1160:	18 00       	.word	0x0018	; ????
    1162:	00 00       	nop
    1164:	10 0d       	add	r17, r0
    1166:	00 00       	nop
    1168:	40 00       	.word	0x0040	; ????
    116a:	6e 01       	movw	r12, r28
    116c:	16 00       	.word	0x0016	; ????
    116e:	00 00       	nop
    1170:	00 00       	nop
    1172:	00 00       	nop
    1174:	2e 00       	.word	0x002e	; ????
    1176:	00 00       	nop
    1178:	d4 05       	cpc	r29, r4
    117a:	00 00       	nop
    117c:	00 00       	nop
    117e:	00 00       	nop
    1180:	44 00       	.word	0x0044	; ????
    1182:	6f 01       	movw	r12, r30
	...
    118c:	44 00       	.word	0x0044	; ????
    118e:	70 01       	movw	r14, r0
	...
    1198:	44 00       	.word	0x0044	; ????
    119a:	71 01       	movw	r14, r2
    119c:	2e 00       	.word	0x002e	; ????
    119e:	00 00       	nop
    11a0:	00 00       	nop
    11a2:	00 00       	nop
    11a4:	44 00       	.word	0x0044	; ????
    11a6:	76 01       	movw	r14, r12
    11a8:	40 00       	.word	0x0040	; ????
    11aa:	00 00       	nop
    11ac:	00 00       	nop
    11ae:	00 00       	nop
    11b0:	44 00       	.word	0x0044	; ????
    11b2:	74 01       	movw	r14, r8
    11b4:	52 00       	.word	0x0052	; ????
    11b6:	00 00       	nop
    11b8:	00 00       	nop
    11ba:	00 00       	nop
    11bc:	44 00       	.word	0x0044	; ????
    11be:	79 01       	movw	r14, r18
    11c0:	58 00       	.word	0x0058	; ????
    11c2:	00 00       	nop
    11c4:	00 00       	nop
    11c6:	00 00       	nop
    11c8:	44 00       	.word	0x0044	; ????
    11ca:	7b 01       	movw	r14, r22
    11cc:	5c 00       	.word	0x005c	; ????
    11ce:	00 00       	nop
    11d0:	00 00       	nop
    11d2:	00 00       	nop
    11d4:	44 00       	.word	0x0044	; ????
    11d6:	7c 01       	movw	r14, r24
    11d8:	5e 00       	.word	0x005e	; ????
    11da:	00 00       	nop
    11dc:	00 00       	nop
    11de:	00 00       	nop
    11e0:	44 00       	.word	0x0044	; ????
    11e2:	80 01       	movw	r16, r0
    11e4:	68 00       	.word	0x0068	; ????
    11e6:	00 00       	nop
    11e8:	00 00       	nop
    11ea:	00 00       	nop
    11ec:	44 00       	.word	0x0044	; ????
    11ee:	81 01       	movw	r16, r2
    11f0:	6a 00       	.word	0x006a	; ????
    11f2:	00 00       	nop
    11f4:	00 00       	nop
    11f6:	00 00       	nop
    11f8:	24 00       	.word	0x0024	; ????
    11fa:	00 00       	nop
    11fc:	7a 00       	.word	0x007a	; ????
    11fe:	00 00       	nop
    1200:	00 00       	nop
    1202:	00 00       	nop
    1204:	4e 00       	.word	0x004e	; ????
    1206:	00 00       	nop
    1208:	4e 06       	cpc	r4, r30
    120a:	00 00       	nop
    120c:	30 0d       	add	r19, r0
    120e:	00 00       	nop
    1210:	24 00       	.word	0x0024	; ????
    1212:	85 01       	movw	r16, r10
    1214:	4e 06       	cpc	r4, r30
    1216:	00 00       	nop
    1218:	48 0d       	add	r20, r8
    121a:	00 00       	nop
    121c:	40 00       	.word	0x0040	; ????
    121e:	85 01       	movw	r16, r10
    1220:	18 00       	.word	0x0018	; ????
    1222:	00 00       	nop
    1224:	00 00       	nop
    1226:	00 00       	nop
    1228:	2e 00       	.word	0x002e	; ????
    122a:	00 00       	nop
    122c:	4e 06       	cpc	r4, r30
    122e:	00 00       	nop
    1230:	00 00       	nop
    1232:	00 00       	nop
    1234:	44 00       	.word	0x0044	; ????
    1236:	86 01       	movw	r16, r12
	...
    1240:	44 00       	.word	0x0044	; ????
    1242:	87 01       	movw	r16, r14
	...
    124c:	44 00       	.word	0x0044	; ????
    124e:	8d 01       	movw	r16, r26
    1250:	04 00       	.word	0x0004	; ????
    1252:	00 00       	nop
    1254:	00 00       	nop
    1256:	00 00       	nop
    1258:	44 00       	.word	0x0044	; ????
    125a:	89 01       	movw	r16, r18
    125c:	08 00       	.word	0x0008	; ????
    125e:	00 00       	nop
    1260:	00 00       	nop
    1262:	00 00       	nop
    1264:	44 00       	.word	0x0044	; ????
    1266:	8a 01       	movw	r16, r20
    1268:	0a 00       	.word	0x000a	; ????
    126a:	00 00       	nop
    126c:	00 00       	nop
    126e:	00 00       	nop
    1270:	24 00       	.word	0x0024	; ????
    1272:	00 00       	nop
    1274:	10 00       	.word	0x0010	; ????
    1276:	00 00       	nop
    1278:	00 00       	nop
    127a:	00 00       	nop
    127c:	4e 00       	.word	0x004e	; ????
    127e:	00 00       	nop
    1280:	5e 06       	cpc	r5, r30
    1282:	00 00       	nop
    1284:	54 0d       	add	r21, r4
    1286:	00 00       	nop
    1288:	24 00       	.word	0x0024	; ????
    128a:	90 01       	movw	r18, r0
    128c:	5e 06       	cpc	r5, r30
    128e:	00 00       	nop
    1290:	00 00       	nop
    1292:	00 00       	nop
    1294:	2e 00       	.word	0x002e	; ????
    1296:	00 00       	nop
    1298:	5e 06       	cpc	r5, r30
    129a:	00 00       	nop
    129c:	00 00       	nop
    129e:	00 00       	nop
    12a0:	44 00       	.word	0x0044	; ????
    12a2:	91 01       	movw	r18, r2
	...
    12ac:	44 00       	.word	0x0044	; ????
    12ae:	93 01       	movw	r18, r6
    12b0:	22 00       	.word	0x0022	; ????
    12b2:	00 00       	nop
    12b4:	00 00       	nop
    12b6:	00 00       	nop
    12b8:	44 00       	.word	0x0044	; ????
    12ba:	94 01       	movw	r18, r8
    12bc:	26 00       	.word	0x0026	; ????
    12be:	00 00       	nop
    12c0:	00 00       	nop
    12c2:	00 00       	nop
    12c4:	44 00       	.word	0x0044	; ????
    12c6:	9d 01       	movw	r18, r26
    12c8:	28 00       	.word	0x0028	; ????
    12ca:	00 00       	nop
    12cc:	00 00       	nop
    12ce:	00 00       	nop
    12d0:	44 00       	.word	0x0044	; ????
    12d2:	9f 01       	movw	r18, r30
    12d4:	2c 00       	.word	0x002c	; ????
    12d6:	00 00       	nop
    12d8:	00 00       	nop
    12da:	00 00       	nop
    12dc:	44 00       	.word	0x0044	; ????
    12de:	a0 01       	movw	r20, r0
    12e0:	30 00       	.word	0x0030	; ????
    12e2:	00 00       	nop
    12e4:	00 00       	nop
    12e6:	00 00       	nop
    12e8:	44 00       	.word	0x0044	; ????
    12ea:	aa 01       	movw	r20, r20
    12ec:	34 00       	.word	0x0034	; ????
    12ee:	00 00       	nop
    12f0:	00 00       	nop
    12f2:	00 00       	nop
    12f4:	44 00       	.word	0x0044	; ????
    12f6:	af 01       	movw	r20, r30
    12f8:	40 00       	.word	0x0040	; ????
    12fa:	00 00       	nop
    12fc:	00 00       	nop
    12fe:	00 00       	nop
    1300:	44 00       	.word	0x0044	; ????
    1302:	b0 01       	movw	r22, r0
    1304:	4a 00       	.word	0x004a	; ????
    1306:	00 00       	nop
    1308:	00 00       	nop
    130a:	00 00       	nop
    130c:	44 00       	.word	0x0044	; ????
    130e:	ad 01       	movw	r20, r26
    1310:	5c 00       	.word	0x005c	; ????
    1312:	00 00       	nop
    1314:	00 00       	nop
    1316:	00 00       	nop
    1318:	44 00       	.word	0x0044	; ????
    131a:	b6 01       	movw	r22, r12
    131c:	64 00       	.word	0x0064	; ????
    131e:	00 00       	nop
    1320:	00 00       	nop
    1322:	00 00       	nop
    1324:	44 00       	.word	0x0044	; ????
    1326:	c0 01       	movw	r24, r0
    1328:	68 00       	.word	0x0068	; ????
    132a:	00 00       	nop
    132c:	00 00       	nop
    132e:	00 00       	nop
    1330:	44 00       	.word	0x0044	; ????
    1332:	c6 01       	movw	r24, r12
    1334:	6c 00       	.word	0x006c	; ????
    1336:	00 00       	nop
    1338:	00 00       	nop
    133a:	00 00       	nop
    133c:	44 00       	.word	0x0044	; ????
    133e:	c7 01       	movw	r24, r14
    1340:	70 00       	.word	0x0070	; ????
    1342:	00 00       	nop
    1344:	00 00       	nop
    1346:	00 00       	nop
    1348:	44 00       	.word	0x0044	; ????
    134a:	c8 01       	movw	r24, r16
    134c:	76 00       	.word	0x0076	; ????
    134e:	00 00       	nop
    1350:	00 00       	nop
    1352:	00 00       	nop
    1354:	44 00       	.word	0x0044	; ????
    1356:	c9 01       	movw	r24, r18
    1358:	80 00       	.word	0x0080	; ????
    135a:	00 00       	nop
    135c:	00 00       	nop
    135e:	00 00       	nop
    1360:	44 00       	.word	0x0044	; ????
    1362:	ca 01       	movw	r24, r20
    1364:	92 00       	.word	0x0092	; ????
    1366:	00 00       	nop
    1368:	00 00       	nop
    136a:	00 00       	nop
    136c:	44 00       	.word	0x0044	; ????
    136e:	89 01       	movw	r16, r18
    1370:	94 00       	.word	0x0094	; ????
    1372:	00 00       	nop
    1374:	00 00       	nop
    1376:	00 00       	nop
    1378:	44 00       	.word	0x0044	; ????
    137a:	8a 01       	movw	r16, r20
    137c:	96 00       	.word	0x0096	; ????
    137e:	00 00       	nop
    1380:	00 00       	nop
    1382:	00 00       	nop
    1384:	44 00       	.word	0x0044	; ????
    1386:	30 02       	muls	r19, r16
    1388:	9e 00       	.word	0x009e	; ????
    138a:	00 00       	nop
    138c:	00 00       	nop
    138e:	00 00       	nop
    1390:	44 00       	.word	0x0044	; ????
    1392:	92 02       	muls	r25, r18
    1394:	a2 00       	.word	0x00a2	; ????
    1396:	00 00       	nop
    1398:	00 00       	nop
    139a:	00 00       	nop
    139c:	44 00       	.word	0x0044	; ????
    139e:	7c 01       	movw	r14, r24
    13a0:	a8 00       	.word	0x00a8	; ????
    13a2:	00 00       	nop
    13a4:	00 00       	nop
    13a6:	00 00       	nop
    13a8:	44 00       	.word	0x0044	; ????
    13aa:	81 01       	movw	r16, r2
    13ac:	ae 00       	.word	0x00ae	; ????
    13ae:	00 00       	nop
    13b0:	00 00       	nop
    13b2:	00 00       	nop
    13b4:	44 00       	.word	0x0044	; ????
    13b6:	36 02       	muls	r19, r22
    13b8:	b4 00       	.word	0x00b4	; ????
    13ba:	00 00       	nop
    13bc:	00 00       	nop
    13be:	00 00       	nop
    13c0:	44 00       	.word	0x0044	; ????
    13c2:	0b 02       	muls	r16, r27
    13c4:	b8 00       	.word	0x00b8	; ????
    13c6:	00 00       	nop
    13c8:	00 00       	nop
    13ca:	00 00       	nop
    13cc:	44 00       	.word	0x0044	; ????
    13ce:	d9 01       	movw	r26, r18
    13d0:	c4 00       	.word	0x00c4	; ????
    13d2:	00 00       	nop
    13d4:	00 00       	nop
    13d6:	00 00       	nop
    13d8:	44 00       	.word	0x0044	; ????
    13da:	cf 01       	movw	r24, r30
    13dc:	c8 00       	.word	0x00c8	; ????
    13de:	00 00       	nop
    13e0:	00 00       	nop
    13e2:	00 00       	nop
    13e4:	44 00       	.word	0x0044	; ????
    13e6:	d0 01       	movw	r26, r0
    13e8:	d0 00       	.word	0x00d0	; ????
    13ea:	00 00       	nop
    13ec:	00 00       	nop
    13ee:	00 00       	nop
    13f0:	44 00       	.word	0x0044	; ????
    13f2:	d2 01       	movw	r26, r4
    13f4:	d4 00       	.word	0x00d4	; ????
    13f6:	00 00       	nop
    13f8:	00 00       	nop
    13fa:	00 00       	nop
    13fc:	44 00       	.word	0x0044	; ????
    13fe:	d3 01       	movw	r26, r6
    1400:	d8 00       	.word	0x00d8	; ????
    1402:	00 00       	nop
    1404:	00 00       	nop
    1406:	00 00       	nop
    1408:	44 00       	.word	0x0044	; ????
    140a:	d2 01       	movw	r26, r4
    140c:	da 00       	.word	0x00da	; ????
    140e:	00 00       	nop
    1410:	00 00       	nop
    1412:	00 00       	nop
    1414:	44 00       	.word	0x0044	; ????
    1416:	d6 01       	movw	r26, r12
    1418:	e2 00       	.word	0x00e2	; ????
    141a:	00 00       	nop
    141c:	00 00       	nop
    141e:	00 00       	nop
    1420:	44 00       	.word	0x0044	; ????
    1422:	d6 01       	movw	r26, r12
    1424:	ea 00       	.word	0x00ea	; ????
    1426:	00 00       	nop
    1428:	00 00       	nop
    142a:	00 00       	nop
    142c:	44 00       	.word	0x0044	; ????
    142e:	d9 01       	movw	r26, r18
    1430:	f2 00       	.word	0x00f2	; ????
    1432:	00 00       	nop
    1434:	00 00       	nop
    1436:	00 00       	nop
    1438:	44 00       	.word	0x0044	; ????
    143a:	da 01       	movw	r26, r20
    143c:	f6 00       	.word	0x00f6	; ????
    143e:	00 00       	nop
    1440:	00 00       	nop
    1442:	00 00       	nop
    1444:	44 00       	.word	0x0044	; ????
    1446:	db 01       	movw	r26, r22
    1448:	fa 00       	.word	0x00fa	; ????
    144a:	00 00       	nop
    144c:	00 00       	nop
    144e:	00 00       	nop
    1450:	44 00       	.word	0x0044	; ????
    1452:	dc 01       	movw	r26, r24
    1454:	02 01       	movw	r0, r4
    1456:	00 00       	nop
    1458:	00 00       	nop
    145a:	00 00       	nop
    145c:	44 00       	.word	0x0044	; ????
    145e:	dd 01       	movw	r26, r26
    1460:	06 01       	movw	r0, r12
    1462:	00 00       	nop
    1464:	00 00       	nop
    1466:	00 00       	nop
    1468:	44 00       	.word	0x0044	; ????
    146a:	df 01       	movw	r26, r30
    146c:	12 01       	movw	r2, r4
    146e:	00 00       	nop
    1470:	00 00       	nop
    1472:	00 00       	nop
    1474:	44 00       	.word	0x0044	; ????
    1476:	e0 01       	movw	r28, r0
    1478:	1c 01       	movw	r2, r24
    147a:	00 00       	nop
    147c:	00 00       	nop
    147e:	00 00       	nop
    1480:	44 00       	.word	0x0044	; ????
    1482:	e5 01       	movw	r28, r10
    1484:	22 01       	movw	r4, r4
    1486:	00 00       	nop
    1488:	00 00       	nop
    148a:	00 00       	nop
    148c:	44 00       	.word	0x0044	; ????
    148e:	8d 01       	movw	r16, r26
    1490:	26 01       	movw	r4, r12
    1492:	00 00       	nop
    1494:	00 00       	nop
    1496:	00 00       	nop
    1498:	44 00       	.word	0x0044	; ????
    149a:	ea 01       	movw	r28, r20
    149c:	2e 01       	movw	r4, r28
    149e:	00 00       	nop
    14a0:	00 00       	nop
    14a2:	00 00       	nop
    14a4:	44 00       	.word	0x0044	; ????
    14a6:	eb 01       	movw	r28, r22
    14a8:	3c 01       	movw	r6, r24
    14aa:	00 00       	nop
    14ac:	00 00       	nop
    14ae:	00 00       	nop
    14b0:	44 00       	.word	0x0044	; ????
    14b2:	ed 01       	movw	r28, r26
    14b4:	44 01       	movw	r8, r8
    14b6:	00 00       	nop
    14b8:	00 00       	nop
    14ba:	00 00       	nop
    14bc:	44 00       	.word	0x0044	; ????
    14be:	ee 01       	movw	r28, r28
    14c0:	4a 01       	movw	r8, r20
    14c2:	00 00       	nop
    14c4:	00 00       	nop
    14c6:	00 00       	nop
    14c8:	44 00       	.word	0x0044	; ????
    14ca:	ef 01       	movw	r28, r30
    14cc:	4c 01       	movw	r8, r24
    14ce:	00 00       	nop
    14d0:	00 00       	nop
    14d2:	00 00       	nop
    14d4:	44 00       	.word	0x0044	; ????
    14d6:	1c 02       	muls	r17, r28
    14d8:	52 01       	movw	r10, r4
    14da:	00 00       	nop
    14dc:	00 00       	nop
    14de:	00 00       	nop
    14e0:	44 00       	.word	0x0044	; ????
    14e2:	2e 02       	muls	r18, r30
    14e4:	60 01       	movw	r12, r0
    14e6:	00 00       	nop
    14e8:	00 00       	nop
    14ea:	00 00       	nop
    14ec:	44 00       	.word	0x0044	; ????
    14ee:	2e 02       	muls	r18, r30
    14f0:	6e 01       	movw	r12, r28
    14f2:	00 00       	nop
    14f4:	00 00       	nop
    14f6:	00 00       	nop
    14f8:	44 00       	.word	0x0044	; ????
    14fa:	b6 02       	muls	r27, r22
    14fc:	74 01       	movw	r14, r8
    14fe:	00 00       	nop
    1500:	00 00       	nop
    1502:	00 00       	nop
    1504:	44 00       	.word	0x0044	; ????
    1506:	f2 01       	movw	r30, r4
    1508:	7c 01       	movw	r14, r24
    150a:	00 00       	nop
    150c:	00 00       	nop
    150e:	00 00       	nop
    1510:	44 00       	.word	0x0044	; ????
    1512:	f8 01       	movw	r30, r16
    1514:	82 01       	movw	r16, r4
    1516:	00 00       	nop
    1518:	00 00       	nop
    151a:	00 00       	nop
    151c:	44 00       	.word	0x0044	; ????
    151e:	fe 01       	movw	r30, r28
    1520:	88 01       	movw	r16, r16
    1522:	00 00       	nop
    1524:	00 00       	nop
    1526:	00 00       	nop
    1528:	44 00       	.word	0x0044	; ????
    152a:	01 02       	muls	r16, r17
    152c:	8e 01       	movw	r16, r28
    152e:	00 00       	nop
    1530:	00 00       	nop
    1532:	00 00       	nop
    1534:	44 00       	.word	0x0044	; ????
    1536:	01 02       	muls	r16, r17
    1538:	96 01       	movw	r18, r12
    153a:	00 00       	nop
    153c:	00 00       	nop
    153e:	00 00       	nop
    1540:	44 00       	.word	0x0044	; ????
    1542:	30 02       	muls	r19, r16
    1544:	a4 01       	movw	r20, r8
    1546:	00 00       	nop
    1548:	00 00       	nop
    154a:	00 00       	nop
    154c:	44 00       	.word	0x0044	; ????
    154e:	89 01       	movw	r16, r18
    1550:	ae 01       	movw	r20, r28
    1552:	00 00       	nop
    1554:	00 00       	nop
    1556:	00 00       	nop
    1558:	44 00       	.word	0x0044	; ????
    155a:	8a 01       	movw	r16, r20
    155c:	b0 01       	movw	r22, r0
    155e:	00 00       	nop
    1560:	00 00       	nop
    1562:	00 00       	nop
    1564:	44 00       	.word	0x0044	; ????
    1566:	34 02       	muls	r19, r20
    1568:	b4 01       	movw	r22, r8
    156a:	00 00       	nop
    156c:	00 00       	nop
    156e:	00 00       	nop
    1570:	44 00       	.word	0x0044	; ????
    1572:	63 02       	muls	r22, r19
    1574:	ba 01       	movw	r22, r20
    1576:	00 00       	nop
    1578:	00 00       	nop
    157a:	00 00       	nop
    157c:	44 00       	.word	0x0044	; ????
    157e:	67 02       	muls	r22, r23
    1580:	c0 01       	movw	r24, r0
    1582:	00 00       	nop
    1584:	00 00       	nop
    1586:	00 00       	nop
    1588:	44 00       	.word	0x0044	; ????
    158a:	6b 02       	muls	r22, r27
    158c:	c6 01       	movw	r24, r12
    158e:	00 00       	nop
    1590:	00 00       	nop
    1592:	00 00       	nop
    1594:	44 00       	.word	0x0044	; ????
    1596:	6f 02       	muls	r22, r31
    1598:	cc 01       	movw	r24, r24
    159a:	00 00       	nop
    159c:	00 00       	nop
    159e:	00 00       	nop
    15a0:	44 00       	.word	0x0044	; ????
    15a2:	73 02       	muls	r23, r19
    15a4:	d2 01       	movw	r26, r4
    15a6:	00 00       	nop
    15a8:	00 00       	nop
    15aa:	00 00       	nop
    15ac:	44 00       	.word	0x0044	; ????
    15ae:	77 02       	muls	r23, r23
    15b0:	d8 01       	movw	r26, r16
    15b2:	00 00       	nop
    15b4:	00 00       	nop
    15b6:	00 00       	nop
    15b8:	44 00       	.word	0x0044	; ????
    15ba:	7b 02       	muls	r23, r27
    15bc:	de 01       	movw	r26, r28
    15be:	00 00       	nop
    15c0:	00 00       	nop
    15c2:	00 00       	nop
    15c4:	44 00       	.word	0x0044	; ????
    15c6:	7f 02       	muls	r23, r31
    15c8:	e4 01       	movw	r28, r8
    15ca:	00 00       	nop
    15cc:	00 00       	nop
    15ce:	00 00       	nop
    15d0:	44 00       	.word	0x0044	; ????
    15d2:	83 02       	muls	r24, r19
    15d4:	ea 01       	movw	r28, r20
    15d6:	00 00       	nop
    15d8:	00 00       	nop
    15da:	00 00       	nop
    15dc:	44 00       	.word	0x0044	; ????
    15de:	87 02       	muls	r24, r23
    15e0:	f0 01       	movw	r30, r0
    15e2:	00 00       	nop
    15e4:	00 00       	nop
    15e6:	00 00       	nop
    15e8:	44 00       	.word	0x0044	; ????
    15ea:	8b 02       	muls	r24, r27
    15ec:	f6 01       	movw	r30, r12
    15ee:	00 00       	nop
    15f0:	00 00       	nop
    15f2:	00 00       	nop
    15f4:	44 00       	.word	0x0044	; ????
    15f6:	8f 02       	muls	r24, r31
    15f8:	fc 01       	movw	r30, r24
    15fa:	00 00       	nop
    15fc:	00 00       	nop
    15fe:	00 00       	nop
    1600:	44 00       	.word	0x0044	; ????
    1602:	94 02       	muls	r25, r20
    1604:	02 02       	muls	r16, r18
    1606:	00 00       	nop
    1608:	00 00       	nop
    160a:	00 00       	nop
    160c:	44 00       	.word	0x0044	; ????
    160e:	98 02       	muls	r25, r24
    1610:	08 02       	muls	r16, r24
    1612:	00 00       	nop
    1614:	00 00       	nop
    1616:	00 00       	nop
    1618:	44 00       	.word	0x0044	; ????
    161a:	b2 02       	muls	r27, r18
    161c:	0e 02       	muls	r16, r30
    161e:	00 00       	nop
    1620:	00 00       	nop
    1622:	00 00       	nop
    1624:	44 00       	.word	0x0044	; ????
    1626:	1f 02       	muls	r17, r31
    1628:	32 02       	muls	r19, r18
    162a:	00 00       	nop
    162c:	00 00       	nop
    162e:	00 00       	nop
    1630:	44 00       	.word	0x0044	; ????
    1632:	23 02       	muls	r18, r19
    1634:	38 02       	muls	r19, r24
    1636:	00 00       	nop
    1638:	00 00       	nop
    163a:	00 00       	nop
    163c:	44 00       	.word	0x0044	; ????
    163e:	2a 02       	muls	r18, r26
    1640:	3e 02       	muls	r19, r30
    1642:	00 00       	nop
    1644:	00 00       	nop
    1646:	00 00       	nop
    1648:	44 00       	.word	0x0044	; ????
    164a:	2c 02       	muls	r18, r28
    164c:	4e 02       	muls	r20, r30
    164e:	00 00       	nop
    1650:	00 00       	nop
    1652:	00 00       	nop
    1654:	44 00       	.word	0x0044	; ????
    1656:	36 02       	muls	r19, r22
    1658:	52 02       	muls	r21, r18
    165a:	00 00       	nop
    165c:	00 00       	nop
    165e:	00 00       	nop
    1660:	44 00       	.word	0x0044	; ????
    1662:	39 02       	muls	r19, r25
    1664:	54 02       	muls	r21, r20
    1666:	00 00       	nop
    1668:	00 00       	nop
    166a:	00 00       	nop
    166c:	44 00       	.word	0x0044	; ????
    166e:	3b 02       	muls	r19, r27
    1670:	5a 02       	muls	r21, r26
    1672:	00 00       	nop
    1674:	00 00       	nop
    1676:	00 00       	nop
    1678:	44 00       	.word	0x0044	; ????
    167a:	40 02       	muls	r20, r16
    167c:	62 02       	muls	r22, r18
    167e:	00 00       	nop
    1680:	00 00       	nop
    1682:	00 00       	nop
    1684:	44 00       	.word	0x0044	; ????
    1686:	41 02       	muls	r20, r17
    1688:	7a 02       	muls	r23, r26
    168a:	00 00       	nop
    168c:	00 00       	nop
    168e:	00 00       	nop
    1690:	44 00       	.word	0x0044	; ????
    1692:	42 02       	muls	r20, r18
    1694:	96 02       	muls	r25, r22
    1696:	00 00       	nop
    1698:	00 00       	nop
    169a:	00 00       	nop
    169c:	44 00       	.word	0x0044	; ????
    169e:	44 02       	muls	r20, r20
    16a0:	9c 02       	muls	r25, r28
    16a2:	00 00       	nop
    16a4:	00 00       	nop
    16a6:	00 00       	nop
    16a8:	44 00       	.word	0x0044	; ????
    16aa:	45 02       	muls	r20, r21
    16ac:	9e 02       	muls	r25, r30
    16ae:	00 00       	nop
    16b0:	00 00       	nop
    16b2:	00 00       	nop
    16b4:	44 00       	.word	0x0044	; ????
    16b6:	4d 02       	muls	r20, r29
    16b8:	aa 02       	muls	r26, r26
    16ba:	00 00       	nop
    16bc:	00 00       	nop
    16be:	00 00       	nop
    16c0:	44 00       	.word	0x0044	; ????
    16c2:	4e 02       	muls	r20, r30
    16c4:	ae 02       	muls	r26, r30
    16c6:	00 00       	nop
    16c8:	00 00       	nop
    16ca:	00 00       	nop
    16cc:	44 00       	.word	0x0044	; ????
    16ce:	f4 01       	movw	r30, r8
    16d0:	b4 02       	muls	r27, r20
    16d2:	00 00       	nop
    16d4:	00 00       	nop
    16d6:	00 00       	nop
    16d8:	44 00       	.word	0x0044	; ????
    16da:	f5 01       	movw	r30, r10
    16dc:	be 02       	muls	r27, r30
    16de:	00 00       	nop
    16e0:	00 00       	nop
    16e2:	00 00       	nop
    16e4:	44 00       	.word	0x0044	; ????
    16e6:	f6 01       	movw	r30, r12
    16e8:	c8 02       	muls	r28, r24
    16ea:	00 00       	nop
    16ec:	00 00       	nop
    16ee:	00 00       	nop
    16f0:	44 00       	.word	0x0044	; ????
    16f2:	03 02       	muls	r16, r19
    16f4:	d2 02       	muls	r29, r18
    16f6:	00 00       	nop
    16f8:	00 00       	nop
    16fa:	00 00       	nop
    16fc:	44 00       	.word	0x0044	; ????
    16fe:	06 02       	muls	r16, r22
    1700:	d6 02       	muls	r29, r22
    1702:	00 00       	nop
    1704:	00 00       	nop
    1706:	00 00       	nop
    1708:	44 00       	.word	0x0044	; ????
    170a:	07 02       	muls	r16, r23
    170c:	e0 02       	muls	r30, r16
    170e:	00 00       	nop
    1710:	00 00       	nop
    1712:	00 00       	nop
    1714:	44 00       	.word	0x0044	; ????
    1716:	08 02       	muls	r16, r24
    1718:	ea 02       	muls	r30, r26
    171a:	00 00       	nop
    171c:	00 00       	nop
    171e:	00 00       	nop
    1720:	44 00       	.word	0x0044	; ????
    1722:	09 02       	muls	r16, r25
    1724:	ee 02       	muls	r30, r30
    1726:	00 00       	nop
    1728:	00 00       	nop
    172a:	00 00       	nop
    172c:	44 00       	.word	0x0044	; ????
    172e:	0b 02       	muls	r16, r27
    1730:	f2 02       	muls	r31, r18
    1732:	00 00       	nop
    1734:	00 00       	nop
    1736:	00 00       	nop
    1738:	44 00       	.word	0x0044	; ????
    173a:	0b 02       	muls	r16, r27
    173c:	fe 02       	muls	r31, r30
    173e:	00 00       	nop
    1740:	00 00       	nop
    1742:	00 00       	nop
    1744:	44 00       	.word	0x0044	; ????
    1746:	21 02       	muls	r18, r17
    1748:	08 03       	fmul	r16, r16
    174a:	00 00       	nop
    174c:	00 00       	nop
    174e:	00 00       	nop
    1750:	44 00       	.word	0x0044	; ????
    1752:	2c 02       	muls	r18, r28
    1754:	0a 03       	fmul	r16, r18
    1756:	00 00       	nop
    1758:	00 00       	nop
    175a:	00 00       	nop
    175c:	44 00       	.word	0x0044	; ????
    175e:	fa 01       	movw	r30, r20
    1760:	0e 03       	fmul	r16, r22
    1762:	00 00       	nop
    1764:	00 00       	nop
    1766:	00 00       	nop
    1768:	44 00       	.word	0x0044	; ????
    176a:	fb 01       	movw	r30, r22
    176c:	18 03       	fmul	r17, r16
    176e:	00 00       	nop
    1770:	00 00       	nop
    1772:	00 00       	nop
    1774:	44 00       	.word	0x0044	; ????
    1776:	fc 01       	movw	r30, r24
    1778:	22 03       	mulsu	r18, r18
    177a:	00 00       	nop
    177c:	00 00       	nop
    177e:	00 00       	nop
    1780:	44 00       	.word	0x0044	; ????
    1782:	4a 02       	muls	r20, r26
    1784:	2c 03       	fmul	r18, r20
    1786:	00 00       	nop
    1788:	00 00       	nop
    178a:	00 00       	nop
    178c:	44 00       	.word	0x0044	; ????
    178e:	4b 02       	muls	r20, r27
    1790:	2e 03       	fmul	r18, r22
    1792:	00 00       	nop
    1794:	00 00       	nop
    1796:	00 00       	nop
    1798:	44 00       	.word	0x0044	; ????
    179a:	25 02       	muls	r18, r21
    179c:	3c 03       	fmul	r19, r20
    179e:	00 00       	nop
    17a0:	00 00       	nop
    17a2:	00 00       	nop
    17a4:	44 00       	.word	0x0044	; ????
    17a6:	2c 02       	muls	r18, r28
    17a8:	3e 03       	fmul	r19, r22
    17aa:	00 00       	nop
    17ac:	00 00       	nop
    17ae:	00 00       	nop
    17b0:	44 00       	.word	0x0044	; ????
    17b2:	01 02       	muls	r16, r17
    17b4:	42 03       	mulsu	r20, r18
    17b6:	00 00       	nop
    17b8:	00 00       	nop
    17ba:	00 00       	nop
    17bc:	44 00       	.word	0x0044	; ????
    17be:	12 02       	muls	r17, r18
    17c0:	48 03       	fmul	r20, r16
    17c2:	00 00       	nop
    17c4:	00 00       	nop
    17c6:	00 00       	nop
    17c8:	44 00       	.word	0x0044	; ????
    17ca:	12 02       	muls	r17, r18
    17cc:	50 03       	mulsu	r21, r16
    17ce:	00 00       	nop
    17d0:	00 00       	nop
    17d2:	00 00       	nop
    17d4:	44 00       	.word	0x0044	; ????
    17d6:	12 02       	muls	r17, r18
    17d8:	5a 03       	fmul	r21, r18
    17da:	00 00       	nop
    17dc:	00 00       	nop
    17de:	00 00       	nop
    17e0:	44 00       	.word	0x0044	; ????
    17e2:	13 02       	muls	r17, r19
    17e4:	5c 03       	fmul	r21, r20
    17e6:	00 00       	nop
    17e8:	00 00       	nop
    17ea:	00 00       	nop
    17ec:	44 00       	.word	0x0044	; ????
    17ee:	16 02       	muls	r17, r22
    17f0:	64 03       	mulsu	r22, r20
    17f2:	00 00       	nop
    17f4:	00 00       	nop
    17f6:	00 00       	nop
    17f8:	44 00       	.word	0x0044	; ????
    17fa:	0b 02       	muls	r16, r27
    17fc:	72 03       	mulsu	r23, r18
    17fe:	00 00       	nop
    1800:	00 00       	nop
    1802:	00 00       	nop
    1804:	44 00       	.word	0x0044	; ????
    1806:	70 01       	movw	r14, r0
    1808:	78 03       	fmul	r23, r16
    180a:	00 00       	nop
    180c:	00 00       	nop
    180e:	00 00       	nop
    1810:	44 00       	.word	0x0044	; ????
    1812:	71 01       	movw	r14, r2
    1814:	9c 03       	fmulsu	r17, r20
    1816:	00 00       	nop
    1818:	00 00       	nop
    181a:	00 00       	nop
    181c:	44 00       	.word	0x0044	; ????
    181e:	7b 01       	movw	r14, r22
    1820:	a0 03       	fmuls	r18, r16
    1822:	00 00       	nop
    1824:	00 00       	nop
    1826:	00 00       	nop
    1828:	44 00       	.word	0x0044	; ????
    182a:	7c 01       	movw	r14, r24
    182c:	a2 03       	fmuls	r18, r18
    182e:	00 00       	nop
    1830:	00 00       	nop
    1832:	00 00       	nop
    1834:	44 00       	.word	0x0044	; ????
    1836:	70 01       	movw	r14, r0
    1838:	ac 03       	fmulsu	r18, r20
    183a:	00 00       	nop
    183c:	00 00       	nop
    183e:	00 00       	nop
    1840:	44 00       	.word	0x0044	; ????
    1842:	71 01       	movw	r14, r2
    1844:	d0 03       	fmuls	r21, r16
    1846:	00 00       	nop
    1848:	00 00       	nop
    184a:	00 00       	nop
    184c:	44 00       	.word	0x0044	; ????
    184e:	80 01       	movw	r16, r0
    1850:	d4 03       	fmuls	r21, r20
    1852:	00 00       	nop
    1854:	00 00       	nop
    1856:	00 00       	nop
    1858:	44 00       	.word	0x0044	; ????
    185a:	81 01       	movw	r16, r2
    185c:	d6 03       	fmuls	r21, r22
    185e:	00 00       	nop
    1860:	00 00       	nop
    1862:	00 00       	nop
    1864:	44 00       	.word	0x0044	; ????
    1866:	71 01       	movw	r14, r2
    1868:	ec 03       	fmulsu	r22, r20
    186a:	00 00       	nop
    186c:	00 00       	nop
    186e:	00 00       	nop
    1870:	44 00       	.word	0x0044	; ????
    1872:	76 01       	movw	r14, r12
    1874:	f0 03       	fmuls	r23, r16
    1876:	00 00       	nop
    1878:	00 00       	nop
    187a:	00 00       	nop
    187c:	44 00       	.word	0x0044	; ????
    187e:	74 01       	movw	r14, r8
    1880:	00 04       	cpc	r0, r0
    1882:	00 00       	nop
    1884:	00 00       	nop
    1886:	00 00       	nop
    1888:	44 00       	.word	0x0044	; ????
    188a:	71 01       	movw	r14, r2
    188c:	12 04       	cpc	r1, r2
    188e:	00 00       	nop
    1890:	00 00       	nop
    1892:	00 00       	nop
    1894:	44 00       	.word	0x0044	; ????
    1896:	76 01       	movw	r14, r12
    1898:	16 04       	cpc	r1, r6
    189a:	00 00       	nop
    189c:	00 00       	nop
    189e:	00 00       	nop
    18a0:	44 00       	.word	0x0044	; ????
    18a2:	74 01       	movw	r14, r8
    18a4:	22 04       	cpc	r2, r2
    18a6:	00 00       	nop
    18a8:	00 00       	nop
    18aa:	00 00       	nop
    18ac:	44 00       	.word	0x0044	; ????
    18ae:	70 01       	movw	r14, r0
    18b0:	2e 04       	cpc	r2, r14
    18b2:	00 00       	nop
    18b4:	00 00       	nop
    18b6:	00 00       	nop
    18b8:	44 00       	.word	0x0044	; ????
    18ba:	71 01       	movw	r14, r2
    18bc:	52 04       	cpc	r5, r2
    18be:	00 00       	nop
    18c0:	00 00       	nop
    18c2:	00 00       	nop
    18c4:	44 00       	.word	0x0044	; ????
    18c6:	7b 01       	movw	r14, r22
    18c8:	56 04       	cpc	r5, r6
    18ca:	00 00       	nop
    18cc:	00 00       	nop
    18ce:	00 00       	nop
    18d0:	44 00       	.word	0x0044	; ????
    18d2:	7c 01       	movw	r14, r24
    18d4:	58 04       	cpc	r5, r8
    18d6:	00 00       	nop
    18d8:	00 00       	nop
    18da:	00 00       	nop
    18dc:	44 00       	.word	0x0044	; ????
    18de:	70 01       	movw	r14, r0
    18e0:	62 04       	cpc	r6, r2
    18e2:	00 00       	nop
    18e4:	00 00       	nop
    18e6:	00 00       	nop
    18e8:	44 00       	.word	0x0044	; ????
    18ea:	71 01       	movw	r14, r2
    18ec:	88 04       	cpc	r8, r8
    18ee:	00 00       	nop
    18f0:	00 00       	nop
    18f2:	00 00       	nop
    18f4:	44 00       	.word	0x0044	; ????
    18f6:	80 01       	movw	r16, r0
    18f8:	8c 04       	cpc	r8, r12
    18fa:	00 00       	nop
    18fc:	00 00       	nop
    18fe:	00 00       	nop
    1900:	44 00       	.word	0x0044	; ????
    1902:	81 01       	movw	r16, r2
    1904:	8e 04       	cpc	r8, r14
    1906:	00 00       	nop
    1908:	00 00       	nop
    190a:	00 00       	nop
    190c:	44 00       	.word	0x0044	; ????
    190e:	71 01       	movw	r14, r2
    1910:	a4 04       	cpc	r10, r4
    1912:	00 00       	nop
    1914:	00 00       	nop
    1916:	00 00       	nop
    1918:	44 00       	.word	0x0044	; ????
    191a:	76 01       	movw	r14, r12
    191c:	a8 04       	cpc	r10, r8
    191e:	00 00       	nop
    1920:	00 00       	nop
    1922:	00 00       	nop
    1924:	44 00       	.word	0x0044	; ????
    1926:	74 01       	movw	r14, r8
    1928:	b8 04       	cpc	r11, r8
    192a:	00 00       	nop
    192c:	00 00       	nop
    192e:	00 00       	nop
    1930:	44 00       	.word	0x0044	; ????
    1932:	71 01       	movw	r14, r2
    1934:	ca 04       	cpc	r12, r10
    1936:	00 00       	nop
    1938:	00 00       	nop
    193a:	00 00       	nop
    193c:	44 00       	.word	0x0044	; ????
    193e:	76 01       	movw	r14, r12
    1940:	ce 04       	cpc	r12, r14
    1942:	00 00       	nop
    1944:	00 00       	nop
    1946:	00 00       	nop
    1948:	44 00       	.word	0x0044	; ????
    194a:	74 01       	movw	r14, r8
    194c:	de 04       	cpc	r13, r14
    194e:	00 00       	nop
    1950:	00 00       	nop
    1952:	00 00       	nop
    1954:	44 00       	.word	0x0044	; ????
    1956:	12 02       	muls	r17, r18
    1958:	e6 04       	cpc	r14, r6
    195a:	00 00       	nop
    195c:	00 00       	nop
    195e:	00 00       	nop
    1960:	44 00       	.word	0x0044	; ????
    1962:	5f 02       	muls	r21, r31
    1964:	ea 04       	cpc	r14, r10
    1966:	00 00       	nop
    1968:	00 00       	nop
    196a:	00 00       	nop
    196c:	44 00       	.word	0x0044	; ????
    196e:	70 01       	movw	r14, r0
    1970:	f0 04       	cpc	r15, r0
    1972:	00 00       	nop
    1974:	00 00       	nop
    1976:	00 00       	nop
    1978:	44 00       	.word	0x0044	; ????
    197a:	71 01       	movw	r14, r2
    197c:	16 05       	cpc	r17, r6
    197e:	00 00       	nop
    1980:	00 00       	nop
    1982:	00 00       	nop
    1984:	44 00       	.word	0x0044	; ????
    1986:	76 01       	movw	r14, r12
    1988:	2a 05       	cpc	r18, r10
    198a:	00 00       	nop
    198c:	00 00       	nop
    198e:	00 00       	nop
    1990:	44 00       	.word	0x0044	; ????
    1992:	74 01       	movw	r14, r8
    1994:	3a 05       	cpc	r19, r10
    1996:	00 00       	nop
    1998:	00 00       	nop
    199a:	00 00       	nop
    199c:	44 00       	.word	0x0044	; ????
    199e:	7b 01       	movw	r14, r22
    19a0:	40 05       	cpc	r20, r0
    19a2:	00 00       	nop
    19a4:	00 00       	nop
    19a6:	00 00       	nop
    19a8:	44 00       	.word	0x0044	; ????
    19aa:	7c 01       	movw	r14, r24
    19ac:	42 05       	cpc	r20, r2
    19ae:	00 00       	nop
    19b0:	00 00       	nop
    19b2:	00 00       	nop
    19b4:	44 00       	.word	0x0044	; ????
    19b6:	79 02       	muls	r23, r25
    19b8:	4c 05       	cpc	r20, r12
    19ba:	00 00       	nop
    19bc:	00 00       	nop
    19be:	00 00       	nop
    19c0:	44 00       	.word	0x0044	; ????
    19c2:	75 02       	muls	r23, r21
    19c4:	52 05       	cpc	r21, r2
    19c6:	00 00       	nop
    19c8:	00 00       	nop
    19ca:	00 00       	nop
    19cc:	44 00       	.word	0x0044	; ????
    19ce:	89 02       	muls	r24, r25
    19d0:	58 05       	cpc	r21, r8
    19d2:	00 00       	nop
    19d4:	00 00       	nop
    19d6:	00 00       	nop
    19d8:	44 00       	.word	0x0044	; ????
    19da:	85 02       	muls	r24, r21
    19dc:	5e 05       	cpc	r21, r14
    19de:	00 00       	nop
    19e0:	00 00       	nop
    19e2:	00 00       	nop
    19e4:	44 00       	.word	0x0044	; ????
    19e6:	81 02       	muls	r24, r17
    19e8:	64 05       	cpc	r22, r4
    19ea:	00 00       	nop
    19ec:	00 00       	nop
    19ee:	00 00       	nop
    19f0:	44 00       	.word	0x0044	; ????
    19f2:	7d 02       	muls	r23, r29
    19f4:	6a 05       	cpc	r22, r10
    19f6:	00 00       	nop
    19f8:	00 00       	nop
    19fa:	00 00       	nop
    19fc:	44 00       	.word	0x0044	; ????
    19fe:	9b 02       	muls	r25, r27
    1a00:	70 05       	cpc	r23, r0
    1a02:	00 00       	nop
    1a04:	00 00       	nop
    1a06:	00 00       	nop
    1a08:	44 00       	.word	0x0044	; ????
    1a0a:	a3 02       	muls	r26, r19
    1a0c:	9a 05       	cpc	r25, r10
    1a0e:	00 00       	nop
    1a10:	00 00       	nop
    1a12:	00 00       	nop
    1a14:	44 00       	.word	0x0044	; ????
    1a16:	a4 02       	muls	r26, r20
    1a18:	a2 05       	cpc	r26, r2
    1a1a:	00 00       	nop
    1a1c:	00 00       	nop
    1a1e:	00 00       	nop
    1a20:	44 00       	.word	0x0044	; ????
    1a22:	a5 02       	muls	r26, r21
    1a24:	a4 05       	cpc	r26, r4
    1a26:	00 00       	nop
    1a28:	00 00       	nop
    1a2a:	00 00       	nop
    1a2c:	44 00       	.word	0x0044	; ????
    1a2e:	a6 02       	muls	r26, r22
    1a30:	ae 05       	cpc	r26, r14
    1a32:	00 00       	nop
    1a34:	00 00       	nop
    1a36:	00 00       	nop
    1a38:	44 00       	.word	0x0044	; ????
    1a3a:	a1 02       	muls	r26, r17
    1a3c:	b6 05       	cpc	r27, r6
    1a3e:	00 00       	nop
    1a40:	00 00       	nop
    1a42:	00 00       	nop
    1a44:	44 00       	.word	0x0044	; ????
    1a46:	c1 02       	muls	r28, r17
    1a48:	be 05       	cpc	r27, r14
    1a4a:	00 00       	nop
    1a4c:	00 00       	nop
    1a4e:	00 00       	nop
    1a50:	44 00       	.word	0x0044	; ????
    1a52:	96 02       	muls	r25, r22
    1a54:	e2 05       	cpc	r30, r2
    1a56:	00 00       	nop
    1a58:	00 00       	nop
    1a5a:	00 00       	nop
    1a5c:	44 00       	.word	0x0044	; ????
    1a5e:	8f 02       	muls	r24, r31
    1a60:	e8 05       	cpc	r30, r8
    1a62:	00 00       	nop
    1a64:	00 00       	nop
    1a66:	00 00       	nop
    1a68:	44 00       	.word	0x0044	; ????
    1a6a:	91 02       	muls	r25, r17
    1a6c:	ec 05       	cpc	r30, r12
    1a6e:	00 00       	nop
    1a70:	00 00       	nop
    1a72:	00 00       	nop
    1a74:	44 00       	.word	0x0044	; ????
    1a76:	92 02       	muls	r25, r18
    1a78:	f0 05       	cpc	r31, r0
    1a7a:	00 00       	nop
    1a7c:	00 00       	nop
    1a7e:	00 00       	nop
    1a80:	44 00       	.word	0x0044	; ????
    1a82:	8d 02       	muls	r24, r29
    1a84:	fa 05       	cpc	r31, r10
    1a86:	00 00       	nop
    1a88:	61 0d       	add	r22, r1
    1a8a:	00 00       	nop
    1a8c:	40 00       	.word	0x0040	; ????
    1a8e:	ea 01       	movw	r28, r20
    1a90:	1c 00       	.word	0x001c	; ????
    1a92:	00 00       	nop
    1a94:	6e 0d       	add	r22, r14
    1a96:	00 00       	nop
    1a98:	40 00       	.word	0x0040	; ????
    1a9a:	eb 01       	movw	r28, r22
    1a9c:	11 00       	.word	0x0011	; ????
    1a9e:	00 00       	nop
    1aa0:	7a 0d       	add	r23, r10
    1aa2:	00 00       	nop
    1aa4:	40 00       	.word	0x0040	; ????
    1aa6:	ed 01       	movw	r28, r26
    1aa8:	18 00       	.word	0x0018	; ????
    1aaa:	00 00       	nop
    1aac:	00 00       	nop
    1aae:	00 00       	nop
    1ab0:	c0 00       	.word	0x00c0	; ????
    1ab2:	00 00       	nop
    1ab4:	9e 00       	.word	0x009e	; ????
    1ab6:	00 00       	nop
    1ab8:	8c 0d       	add	r24, r12
    1aba:	00 00       	nop
    1abc:	40 00       	.word	0x0040	; ????
    1abe:	30 02       	muls	r19, r16
    1ac0:	16 00       	.word	0x0016	; ????
    1ac2:	00 00       	nop
    1ac4:	00 00       	nop
    1ac6:	00 00       	nop
    1ac8:	c0 00       	.word	0x00c0	; ????
    1aca:	00 00       	nop
    1acc:	9e 00       	.word	0x009e	; ????
    1ace:	00 00       	nop
    1ad0:	a0 0d       	add	r26, r0
    1ad2:	00 00       	nop
    1ad4:	40 00       	.word	0x0040	; ????
    1ad6:	74 01       	movw	r14, r8
    1ad8:	18 00       	.word	0x0018	; ????
    1ada:	00 00       	nop
    1adc:	00 00       	nop
    1ade:	00 00       	nop
    1ae0:	c0 00       	.word	0x00c0	; ????
    1ae2:	00 00       	nop
    1ae4:	16 04       	cpc	r1, r6
    1ae6:	00 00       	nop
    1ae8:	00 00       	nop
    1aea:	00 00       	nop
    1aec:	e0 00       	.word	0x00e0	; ????
    1aee:	00 00       	nop
    1af0:	2e 04       	cpc	r2, r14
    1af2:	00 00       	nop
    1af4:	a9 0d       	add	r26, r9
    1af6:	00 00       	nop
    1af8:	40 00       	.word	0x0040	; ????
    1afa:	40 02       	muls	r20, r16
    1afc:	18 00       	.word	0x0018	; ????
    1afe:	00 00       	nop
    1b00:	b5 0d       	add	r27, r5
    1b02:	00 00       	nop
    1b04:	40 00       	.word	0x0040	; ????
    1b06:	41 02       	muls	r20, r17
    1b08:	14 00       	.word	0x0014	; ????
    1b0a:	00 00       	nop
    1b0c:	00 00       	nop
    1b0e:	00 00       	nop
    1b10:	c0 00       	.word	0x00c0	; ????
    1b12:	00 00       	nop
    1b14:	62 02       	muls	r22, r18
    1b16:	00 00       	nop
    1b18:	00 00       	nop
    1b1a:	00 00       	nop
    1b1c:	e0 00       	.word	0x00e0	; ????
    1b1e:	00 00       	nop
    1b20:	b4 02       	muls	r27, r20
    1b22:	00 00       	nop
    1b24:	a9 0d       	add	r26, r9
    1b26:	00 00       	nop
    1b28:	40 00       	.word	0x0040	; ????
    1b2a:	40 02       	muls	r20, r16
    1b2c:	18 00       	.word	0x0018	; ????
    1b2e:	00 00       	nop
    1b30:	b5 0d       	add	r27, r5
    1b32:	00 00       	nop
    1b34:	40 00       	.word	0x0040	; ????
    1b36:	41 02       	muls	r20, r17
    1b38:	14 00       	.word	0x0014	; ????
    1b3a:	00 00       	nop
    1b3c:	00 00       	nop
    1b3e:	00 00       	nop
    1b40:	c0 00       	.word	0x00c0	; ????
    1b42:	00 00       	nop
    1b44:	2c 03       	fmul	r18, r20
    1b46:	00 00       	nop
    1b48:	00 00       	nop
    1b4a:	00 00       	nop
    1b4c:	e0 00       	.word	0x00e0	; ????
    1b4e:	00 00       	nop
    1b50:	3c 03       	fmul	r19, r20
    1b52:	00 00       	nop
    1b54:	00 00       	nop
    1b56:	00 00       	nop
    1b58:	e0 00       	.word	0x00e0	; ????
    1b5a:	00 00       	nop
    1b5c:	b8 00       	.word	0x00b8	; ????
    1b5e:	00 00       	nop
    1b60:	8c 0d       	add	r24, r12
    1b62:	00 00       	nop
    1b64:	40 00       	.word	0x0040	; ????
    1b66:	30 02       	muls	r19, r16
    1b68:	16 00       	.word	0x0016	; ????
    1b6a:	00 00       	nop
    1b6c:	00 00       	nop
    1b6e:	00 00       	nop
    1b70:	c0 00       	.word	0x00c0	; ????
    1b72:	00 00       	nop
    1b74:	a4 01       	movw	r20, r8
    1b76:	00 00       	nop
    1b78:	00 00       	nop
    1b7a:	00 00       	nop
    1b7c:	e0 00       	.word	0x00e0	; ????
    1b7e:	00 00       	nop
    1b80:	32 02       	muls	r19, r18
    1b82:	00 00       	nop
    1b84:	8c 0d       	add	r24, r12
    1b86:	00 00       	nop
    1b88:	40 00       	.word	0x0040	; ????
    1b8a:	30 02       	muls	r19, r16
    1b8c:	16 00       	.word	0x0016	; ????
    1b8e:	00 00       	nop
    1b90:	00 00       	nop
    1b92:	00 00       	nop
    1b94:	c0 00       	.word	0x00c0	; ????
    1b96:	00 00       	nop
    1b98:	52 02       	muls	r21, r18
    1b9a:	00 00       	nop
    1b9c:	00 00       	nop
    1b9e:	00 00       	nop
    1ba0:	e0 00       	.word	0x00e0	; ????
    1ba2:	00 00       	nop
    1ba4:	b4 02       	muls	r27, r20
    1ba6:	00 00       	nop
    1ba8:	8c 0d       	add	r24, r12
    1baa:	00 00       	nop
    1bac:	40 00       	.word	0x0040	; ????
    1bae:	30 02       	muls	r19, r16
    1bb0:	16 00       	.word	0x0016	; ????
    1bb2:	00 00       	nop
    1bb4:	00 00       	nop
    1bb6:	00 00       	nop
    1bb8:	c0 00       	.word	0x00c0	; ????
    1bba:	00 00       	nop
    1bbc:	2c 03       	fmul	r18, r20
    1bbe:	00 00       	nop
    1bc0:	00 00       	nop
    1bc2:	00 00       	nop
    1bc4:	e0 00       	.word	0x00e0	; ????
    1bc6:	00 00       	nop
    1bc8:	3c 03       	fmul	r19, r20
    1bca:	00 00       	nop
    1bcc:	8c 0d       	add	r24, r12
    1bce:	00 00       	nop
    1bd0:	40 00       	.word	0x0040	; ????
    1bd2:	30 02       	muls	r19, r16
    1bd4:	16 00       	.word	0x0016	; ????
    1bd6:	00 00       	nop
    1bd8:	00 00       	nop
    1bda:	00 00       	nop
    1bdc:	c0 00       	.word	0x00c0	; ????
    1bde:	00 00       	nop
    1be0:	78 03       	fmul	r23, r16
    1be2:	00 00       	nop
    1be4:	00 00       	nop
    1be6:	00 00       	nop
    1be8:	e0 00       	.word	0x00e0	; ????
    1bea:	00 00       	nop
    1bec:	e6 04       	cpc	r14, r6
    1bee:	00 00       	nop
    1bf0:	8c 0d       	add	r24, r12
    1bf2:	00 00       	nop
    1bf4:	40 00       	.word	0x0040	; ????
    1bf6:	30 02       	muls	r19, r16
    1bf8:	16 00       	.word	0x0016	; ????
    1bfa:	00 00       	nop
    1bfc:	00 00       	nop
    1bfe:	00 00       	nop
    1c00:	c0 00       	.word	0x00c0	; ????
    1c02:	00 00       	nop
    1c04:	ea 04       	cpc	r14, r10
    1c06:	00 00       	nop
    1c08:	00 00       	nop
    1c0a:	00 00       	nop
    1c0c:	e0 00       	.word	0x00e0	; ????
    1c0e:	00 00       	nop
    1c10:	be 05       	cpc	r27, r14
    1c12:	00 00       	nop
    1c14:	8c 0d       	add	r24, r12
    1c16:	00 00       	nop
    1c18:	40 00       	.word	0x0040	; ????
    1c1a:	30 02       	muls	r19, r16
    1c1c:	16 00       	.word	0x0016	; ????
    1c1e:	00 00       	nop
    1c20:	00 00       	nop
    1c22:	00 00       	nop
    1c24:	c0 00       	.word	0x00c0	; ????
    1c26:	00 00       	nop
    1c28:	e2 05       	cpc	r30, r2
    1c2a:	00 00       	nop
    1c2c:	00 00       	nop
    1c2e:	00 00       	nop
    1c30:	e0 00       	.word	0x00e0	; ????
    1c32:	00 00       	nop
    1c34:	00 06       	cpc	r0, r16
    1c36:	00 00       	nop
    1c38:	00 00       	nop
    1c3a:	00 00       	nop
    1c3c:	e0 00       	.word	0x00e0	; ????
    1c3e:	00 00       	nop
    1c40:	c4 00       	.word	0x00c4	; ????
    1c42:	00 00       	nop
    1c44:	61 0d       	add	r22, r1
    1c46:	00 00       	nop
    1c48:	40 00       	.word	0x0040	; ????
    1c4a:	ea 01       	movw	r28, r20
    1c4c:	1c 00       	.word	0x001c	; ????
    1c4e:	00 00       	nop
    1c50:	6e 0d       	add	r22, r14
    1c52:	00 00       	nop
    1c54:	40 00       	.word	0x0040	; ????
    1c56:	eb 01       	movw	r28, r22
    1c58:	11 00       	.word	0x0011	; ????
    1c5a:	00 00       	nop
    1c5c:	7a 0d       	add	r23, r10
    1c5e:	00 00       	nop
    1c60:	40 00       	.word	0x0040	; ????
    1c62:	ed 01       	movw	r28, r26
    1c64:	18 00       	.word	0x0018	; ????
    1c66:	00 00       	nop
    1c68:	00 00       	nop
    1c6a:	00 00       	nop
    1c6c:	c0 00       	.word	0x00c0	; ????
    1c6e:	00 00       	nop
    1c70:	2e 01       	movw	r4, r28
    1c72:	00 00       	nop
    1c74:	00 00       	nop
    1c76:	00 00       	nop
    1c78:	e0 00       	.word	0x00e0	; ????
    1c7a:	00 00       	nop
    1c7c:	be 05       	cpc	r27, r14
    1c7e:	00 00       	nop
    1c80:	61 0d       	add	r22, r1
    1c82:	00 00       	nop
    1c84:	40 00       	.word	0x0040	; ????
    1c86:	ea 01       	movw	r28, r20
    1c88:	1c 00       	.word	0x001c	; ????
    1c8a:	00 00       	nop
    1c8c:	6e 0d       	add	r22, r14
    1c8e:	00 00       	nop
    1c90:	40 00       	.word	0x0040	; ????
    1c92:	eb 01       	movw	r28, r22
    1c94:	11 00       	.word	0x0011	; ????
    1c96:	00 00       	nop
    1c98:	7a 0d       	add	r23, r10
    1c9a:	00 00       	nop
    1c9c:	40 00       	.word	0x0040	; ????
    1c9e:	ed 01       	movw	r28, r26
    1ca0:	18 00       	.word	0x0018	; ????
    1ca2:	00 00       	nop
    1ca4:	00 00       	nop
    1ca6:	00 00       	nop
    1ca8:	c0 00       	.word	0x00c0	; ????
    1caa:	00 00       	nop
    1cac:	e2 05       	cpc	r30, r2
    1cae:	00 00       	nop
    1cb0:	00 00       	nop
    1cb2:	00 00       	nop
    1cb4:	e0 00       	.word	0x00e0	; ????
    1cb6:	00 00       	nop
    1cb8:	00 06       	cpc	r0, r16
    1cba:	00 00       	nop
    1cbc:	00 00       	nop
    1cbe:	00 00       	nop
    1cc0:	24 00       	.word	0x0024	; ????
    1cc2:	00 00       	nop
    1cc4:	00 06       	cpc	r0, r16
    1cc6:	00 00       	nop
    1cc8:	00 00       	nop
    1cca:	00 00       	nop
    1ccc:	4e 00       	.word	0x004e	; ????
    1cce:	00 00       	nop
    1cd0:	5e 0c       	add	r5, r14
    1cd2:	00 00       	nop
    1cd4:	c0 0d       	add	r28, r0
    1cd6:	00 00       	nop
    1cd8:	20 00       	.word	0x0020	; ????
    1cda:	01 00       	.word	0x0001	; ????
    1cdc:	00 00       	nop
    1cde:	00 00       	nop
    1ce0:	16 0e       	add	r1, r22
    1ce2:	00 00       	nop
    1ce4:	20 00       	.word	0x0020	; ????
    1ce6:	4a 00       	.word	0x004a	; ????
    1ce8:	00 00       	nop
    1cea:	00 00       	nop
    1cec:	2f 0e       	add	r2, r31
    1cee:	00 00       	nop
    1cf0:	20 00       	.word	0x0020	; ????
    1cf2:	4b 00       	.word	0x004b	; ????
    1cf4:	00 00       	nop
    1cf6:	00 00       	nop
    1cf8:	41 0e       	add	r4, r17
    1cfa:	00 00       	nop
    1cfc:	20 00       	.word	0x0020	; ????
    1cfe:	4c 00       	.word	0x004c	; ????
    1d00:	00 00       	nop
    1d02:	00 00       	nop
    1d04:	53 0e       	add	r5, r19
    1d06:	00 00       	nop
    1d08:	20 00       	.word	0x0020	; ????
    1d0a:	4d 00       	.word	0x004d	; ????
    1d0c:	00 00       	nop
    1d0e:	00 00       	nop
    1d10:	6a 0e       	add	r6, r26
    1d12:	00 00       	nop
    1d14:	20 00       	.word	0x0020	; ????
    1d16:	4e 00       	.word	0x004e	; ????
    1d18:	00 00       	nop
    1d1a:	00 00       	nop
    1d1c:	7e 0e       	add	r7, r30
    1d1e:	00 00       	nop
    1d20:	20 00       	.word	0x0020	; ????
    1d22:	4f 00       	.word	0x004f	; ????
    1d24:	00 00       	nop
    1d26:	00 00       	nop
    1d28:	8f 0e       	add	r8, r31
    1d2a:	00 00       	nop
    1d2c:	20 00       	.word	0x0020	; ????
    1d2e:	50 00       	.word	0x0050	; ????
    1d30:	00 00       	nop
    1d32:	00 00       	nop
    1d34:	a0 0e       	add	r10, r16
    1d36:	00 00       	nop
    1d38:	20 00       	.word	0x0020	; ????
    1d3a:	53 00       	.word	0x0053	; ????
    1d3c:	00 00       	nop
    1d3e:	00 00       	nop
    1d40:	ba 0e       	add	r11, r26
    1d42:	00 00       	nop
    1d44:	20 00       	.word	0x0020	; ????
    1d46:	54 00       	.word	0x0054	; ????
    1d48:	00 00       	nop
    1d4a:	00 00       	nop
    1d4c:	cb 0e       	add	r12, r27
    1d4e:	00 00       	nop
    1d50:	20 00       	.word	0x0020	; ????
    1d52:	55 00       	.word	0x0055	; ????
    1d54:	00 00       	nop
    1d56:	00 00       	nop
    1d58:	e2 0e       	add	r14, r18
    1d5a:	00 00       	nop
    1d5c:	20 00       	.word	0x0020	; ????
    1d5e:	56 00       	.word	0x0056	; ????
    1d60:	00 00       	nop
    1d62:	00 00       	nop
    1d64:	f9 0e       	add	r15, r25
    1d66:	00 00       	nop
    1d68:	20 00       	.word	0x0020	; ????
    1d6a:	57 00       	.word	0x0057	; ????
    1d6c:	00 00       	nop
    1d6e:	00 00       	nop
    1d70:	0f 0f       	add	r16, r31
    1d72:	00 00       	nop
    1d74:	20 00       	.word	0x0020	; ????
    1d76:	58 00       	.word	0x0058	; ????
    1d78:	00 00       	nop
    1d7a:	00 00       	nop
    1d7c:	1f 0f       	add	r17, r31
    1d7e:	00 00       	nop
    1d80:	20 00       	.word	0x0020	; ????
    1d82:	5a 00       	.word	0x005a	; ????
    1d84:	00 00       	nop
    1d86:	00 00       	nop
    1d88:	64 0f       	add	r22, r20
    1d8a:	00 00       	nop
    1d8c:	20 00       	.word	0x0020	; ????
    1d8e:	8f 00       	.word	0x008f	; ????
    1d90:	00 00       	nop
    1d92:	00 00       	nop
    1d94:	77 0f       	add	r23, r23
    1d96:	00 00       	nop
    1d98:	20 00       	.word	0x0020	; ????
    1d9a:	90 00       	.word	0x0090	; ????
    1d9c:	00 00       	nop
    1d9e:	00 00       	nop
    1da0:	92 0f       	add	r25, r18
    1da2:	00 00       	nop
    1da4:	20 00       	.word	0x0020	; ????
    1da6:	98 00       	.word	0x0098	; ????
    1da8:	00 00       	nop
    1daa:	00 00       	nop
    1dac:	a6 0f       	add	r26, r22
    1dae:	00 00       	nop
    1db0:	20 00       	.word	0x0020	; ????
    1db2:	99 00       	.word	0x0099	; ????
    1db4:	00 00       	nop
    1db6:	00 00       	nop
    1db8:	bc 0f       	add	r27, r28
    1dba:	00 00       	nop
    1dbc:	20 00       	.word	0x0020	; ????
    1dbe:	9a 00       	.word	0x009a	; ????
    1dc0:	00 00       	nop
    1dc2:	00 00       	nop
    1dc4:	e0 0f       	add	r30, r16
    1dc6:	00 00       	nop
    1dc8:	20 00       	.word	0x0020	; ????
    1dca:	9b 00       	.word	0x009b	; ????
    1dcc:	00 00       	nop
    1dce:	00 00       	nop
    1dd0:	1a 10       	cpse	r1, r10
    1dd2:	00 00       	nop
    1dd4:	20 00       	.word	0x0020	; ????
    1dd6:	9c 00       	.word	0x009c	; ????
    1dd8:	00 00       	nop
    1dda:	00 00       	nop
    1ddc:	31 10       	cpse	r3, r1
    1dde:	00 00       	nop
    1de0:	20 00       	.word	0x0020	; ????
    1de2:	9d 00       	.word	0x009d	; ????
    1de4:	00 00       	nop
    1de6:	00 00       	nop
    1de8:	47 10       	cpse	r4, r7
    1dea:	00 00       	nop
    1dec:	20 00       	.word	0x0020	; ????
    1dee:	9e 00       	.word	0x009e	; ????
	...
    1df8:	64 00       	.word	0x0064	; ????
    1dfa:	00 00       	nop
    1dfc:	5e 06       	cpc	r5, r30
    1dfe:	00 00       	nop
    1e00:	5b 10       	cpse	r5, r11
    1e02:	00 00       	nop
    1e04:	64 00       	.word	0x0064	; ????
    1e06:	00 00       	nop
    1e08:	5e 06       	cpc	r5, r30
    1e0a:	00 00       	nop
    1e0c:	6b 10       	cpse	r6, r11
    1e0e:	00 00       	nop
    1e10:	84 00       	.word	0x0084	; ????
    1e12:	00 00       	nop
    1e14:	5e 06       	cpc	r5, r30
    1e16:	00 00       	nop
    1e18:	00 00       	nop
    1e1a:	00 00       	nop
    1e1c:	44 00       	.word	0x0044	; ????
    1e1e:	2c 00       	.word	0x002c	; ????
    1e20:	5e 06       	cpc	r5, r30
    1e22:	00 00       	nop
    1e24:	00 00       	nop
    1e26:	00 00       	nop
    1e28:	44 00       	.word	0x0044	; ????
    1e2a:	37 00       	.word	0x0037	; ????
    1e2c:	5e 0c       	add	r5, r14
    1e2e:	00 00       	nop
    1e30:	00 00       	nop
    1e32:	00 00       	nop
    1e34:	44 00       	.word	0x0044	; ????
    1e36:	39 00       	.word	0x0039	; ????
    1e38:	60 0c       	add	r6, r0
    1e3a:	00 00       	nop
    1e3c:	00 00       	nop
    1e3e:	00 00       	nop
    1e40:	44 00       	.word	0x0044	; ????
    1e42:	3c 00       	.word	0x003c	; ????
    1e44:	62 0c       	add	r6, r2
    1e46:	00 00       	nop
    1e48:	00 00       	nop
    1e4a:	00 00       	nop
    1e4c:	44 00       	.word	0x0044	; ????
    1e4e:	3e 00       	.word	0x003e	; ????
    1e50:	64 0c       	add	r6, r4
    1e52:	00 00       	nop
    1e54:	00 00       	nop
    1e56:	00 00       	nop
    1e58:	44 00       	.word	0x0044	; ????
    1e5a:	41 00       	.word	0x0041	; ????
    1e5c:	66 0c       	add	r6, r6
    1e5e:	00 00       	nop
    1e60:	00 00       	nop
    1e62:	00 00       	nop
    1e64:	44 00       	.word	0x0044	; ????
    1e66:	45 00       	.word	0x0045	; ????
    1e68:	68 0c       	add	r6, r8
    1e6a:	00 00       	nop
    1e6c:	8a 10       	cpse	r8, r10
    1e6e:	00 00       	nop
    1e70:	64 00       	.word	0x0064	; ????
    1e72:	00 00       	nop
    1e74:	5e 06       	cpc	r5, r30
    1e76:	00 00       	nop
    1e78:	9a 10       	cpse	r9, r10
    1e7a:	00 00       	nop
    1e7c:	84 00       	.word	0x0084	; ????
    1e7e:	00 00       	nop
    1e80:	5e 06       	cpc	r5, r30
    1e82:	00 00       	nop
    1e84:	00 00       	nop
    1e86:	00 00       	nop
    1e88:	44 00       	.word	0x0044	; ????
    1e8a:	2c 00       	.word	0x002c	; ????
    1e8c:	5e 06       	cpc	r5, r30
    1e8e:	00 00       	nop
    1e90:	00 00       	nop
    1e92:	00 00       	nop
    1e94:	44 00       	.word	0x0044	; ????
    1e96:	2e 00       	.word	0x002e	; ????
    1e98:	68 0c       	add	r6, r8
    1e9a:	00 00       	nop
    1e9c:	00 00       	nop
    1e9e:	00 00       	nop
    1ea0:	44 00       	.word	0x0044	; ????
    1ea2:	2f 00       	.word	0x002f	; ????
    1ea4:	6a 0c       	add	r6, r10
    1ea6:	00 00       	nop
    1ea8:	00 00       	nop
    1eaa:	00 00       	nop
    1eac:	44 00       	.word	0x0044	; ????
    1eae:	30 00       	.word	0x0030	; ????
    1eb0:	6c 0c       	add	r6, r12
    1eb2:	00 00       	nop
    1eb4:	00 00       	nop
    1eb6:	00 00       	nop
    1eb8:	44 00       	.word	0x0044	; ????
    1eba:	32 00       	.word	0x0032	; ????
    1ebc:	6e 0c       	add	r6, r14
    1ebe:	00 00       	nop
    1ec0:	b9 10       	cpse	r11, r9
    1ec2:	00 00       	nop
    1ec4:	64 00       	.word	0x0064	; ????
    1ec6:	00 00       	nop
    1ec8:	5e 06       	cpc	r5, r30
    1eca:	00 00       	nop
    1ecc:	c9 10       	cpse	r12, r9
    1ece:	00 00       	nop
    1ed0:	84 00       	.word	0x0084	; ????
    1ed2:	00 00       	nop
    1ed4:	5e 06       	cpc	r5, r30
    1ed6:	00 00       	nop
    1ed8:	00 00       	nop
    1eda:	00 00       	nop
    1edc:	44 00       	.word	0x0044	; ????
    1ede:	3d 00       	.word	0x003d	; ????
    1ee0:	5e 06       	cpc	r5, r30
    1ee2:	00 00       	nop
    1ee4:	00 00       	nop
    1ee6:	00 00       	nop
    1ee8:	44 00       	.word	0x0044	; ????
    1eea:	74 00       	.word	0x0074	; ????
    1eec:	6e 0c       	add	r6, r14
    1eee:	00 00       	nop
    1ef0:	00 00       	nop
    1ef2:	00 00       	nop
    1ef4:	44 00       	.word	0x0044	; ????
    1ef6:	76 00       	.word	0x0076	; ????
    1ef8:	6e 0c       	add	r6, r14
    1efa:	00 00       	nop
    1efc:	00 00       	nop
    1efe:	00 00       	nop
    1f00:	44 00       	.word	0x0044	; ????
    1f02:	77 00       	.word	0x0077	; ????
    1f04:	70 0c       	add	r7, r0
    1f06:	00 00       	nop
    1f08:	00 00       	nop
    1f0a:	00 00       	nop
    1f0c:	44 00       	.word	0x0044	; ????
    1f0e:	79 00       	.word	0x0079	; ????
    1f10:	72 0c       	add	r7, r2
    1f12:	00 00       	nop
    1f14:	00 00       	nop
    1f16:	00 00       	nop
    1f18:	44 00       	.word	0x0044	; ????
    1f1a:	7a 00       	.word	0x007a	; ????
    1f1c:	72 0c       	add	r7, r2
    1f1e:	00 00       	nop
    1f20:	00 00       	nop
    1f22:	00 00       	nop
    1f24:	44 00       	.word	0x0044	; ????
    1f26:	7b 00       	.word	0x007b	; ????
    1f28:	74 0c       	add	r7, r4
    1f2a:	00 00       	nop
    1f2c:	00 00       	nop
    1f2e:	00 00       	nop
    1f30:	44 00       	.word	0x0044	; ????
    1f32:	7c 00       	.word	0x007c	; ????
    1f34:	76 0c       	add	r7, r6
    1f36:	00 00       	nop
    1f38:	00 00       	nop
    1f3a:	00 00       	nop
    1f3c:	44 00       	.word	0x0044	; ????
    1f3e:	7d 00       	.word	0x007d	; ????
    1f40:	78 0c       	add	r7, r8
    1f42:	00 00       	nop
    1f44:	00 00       	nop
    1f46:	00 00       	nop
    1f48:	44 00       	.word	0x0044	; ????
    1f4a:	7e 00       	.word	0x007e	; ????
    1f4c:	7a 0c       	add	r7, r10
    1f4e:	00 00       	nop
    1f50:	00 00       	nop
    1f52:	00 00       	nop
    1f54:	44 00       	.word	0x0044	; ????
    1f56:	7f 00       	.word	0x007f	; ????
    1f58:	7c 0c       	add	r7, r12
    1f5a:	00 00       	nop
    1f5c:	00 00       	nop
    1f5e:	00 00       	nop
    1f60:	44 00       	.word	0x0044	; ????
    1f62:	80 00       	.word	0x0080	; ????
    1f64:	7e 0c       	add	r7, r14
    1f66:	00 00       	nop
    1f68:	00 00       	nop
    1f6a:	00 00       	nop
    1f6c:	44 00       	.word	0x0044	; ????
    1f6e:	81 00       	.word	0x0081	; ????
    1f70:	80 0c       	add	r8, r0
    1f72:	00 00       	nop
    1f74:	00 00       	nop
    1f76:	00 00       	nop
    1f78:	44 00       	.word	0x0044	; ????
    1f7a:	82 00       	.word	0x0082	; ????
    1f7c:	82 0c       	add	r8, r2
    1f7e:	00 00       	nop
    1f80:	00 00       	nop
    1f82:	00 00       	nop
    1f84:	44 00       	.word	0x0044	; ????
    1f86:	83 00       	.word	0x0083	; ????
    1f88:	84 0c       	add	r8, r4
    1f8a:	00 00       	nop
    1f8c:	00 00       	nop
    1f8e:	00 00       	nop
    1f90:	44 00       	.word	0x0044	; ????
    1f92:	84 00       	.word	0x0084	; ????
    1f94:	86 0c       	add	r8, r6
    1f96:	00 00       	nop
    1f98:	00 00       	nop
    1f9a:	00 00       	nop
    1f9c:	44 00       	.word	0x0044	; ????
    1f9e:	85 00       	.word	0x0085	; ????
    1fa0:	88 0c       	add	r8, r8
    1fa2:	00 00       	nop
    1fa4:	00 00       	nop
    1fa6:	00 00       	nop
    1fa8:	44 00       	.word	0x0044	; ????
    1faa:	86 00       	.word	0x0086	; ????
    1fac:	8a 0c       	add	r8, r10
    1fae:	00 00       	nop
    1fb0:	00 00       	nop
    1fb2:	00 00       	nop
    1fb4:	44 00       	.word	0x0044	; ????
    1fb6:	87 00       	.word	0x0087	; ????
    1fb8:	8c 0c       	add	r8, r12
    1fba:	00 00       	nop
    1fbc:	00 00       	nop
    1fbe:	00 00       	nop
    1fc0:	44 00       	.word	0x0044	; ????
    1fc2:	8b 00       	.word	0x008b	; ????
    1fc4:	8e 0c       	add	r8, r14
    1fc6:	00 00       	nop
    1fc8:	e9 10       	cpse	r14, r9
    1fca:	00 00       	nop
    1fcc:	64 00       	.word	0x0064	; ????
    1fce:	00 00       	nop
    1fd0:	5e 06       	cpc	r5, r30
    1fd2:	00 00       	nop
    1fd4:	f9 10       	cpse	r15, r9
    1fd6:	00 00       	nop
    1fd8:	84 00       	.word	0x0084	; ????
    1fda:	00 00       	nop
    1fdc:	5e 06       	cpc	r5, r30
    1fde:	00 00       	nop
    1fe0:	00 00       	nop
    1fe2:	00 00       	nop
    1fe4:	44 00       	.word	0x0044	; ????
    1fe6:	29 00       	.word	0x0029	; ????
    1fe8:	5e 06       	cpc	r5, r30
    1fea:	00 00       	nop
    1fec:	00 00       	nop
    1fee:	00 00       	nop
    1ff0:	44 00       	.word	0x0044	; ????
    1ff2:	2a 00       	.word	0x002a	; ????
    1ff4:	8e 0c       	add	r8, r14
    1ff6:	00 00       	nop
    1ff8:	00 00       	nop
    1ffa:	00 00       	nop
    1ffc:	44 00       	.word	0x0044	; ????
    1ffe:	2c 00       	.word	0x002c	; ????
    2000:	90 0c       	add	r9, r0
    2002:	00 00       	nop
    2004:	00 00       	nop
    2006:	00 00       	nop
    2008:	44 00       	.word	0x0044	; ????
    200a:	7e 00       	.word	0x007e	; ????
    200c:	90 0c       	add	r9, r0
    200e:	00 00       	nop
    2010:	00 00       	nop
    2012:	00 00       	nop
    2014:	44 00       	.word	0x0044	; ????
    2016:	7f 00       	.word	0x007f	; ????
    2018:	92 0c       	add	r9, r2
    201a:	00 00       	nop
    201c:	00 00       	nop
    201e:	00 00       	nop
    2020:	44 00       	.word	0x0044	; ????
    2022:	8a 00       	.word	0x008a	; ????
    2024:	94 0c       	add	r9, r4
    2026:	00 00       	nop
    2028:	00 00       	nop
    202a:	00 00       	nop
    202c:	44 00       	.word	0x0044	; ????
    202e:	90 00       	.word	0x0090	; ????
    2030:	96 0c       	add	r9, r6
    2032:	00 00       	nop
    2034:	00 00       	nop
    2036:	00 00       	nop
    2038:	44 00       	.word	0x0044	; ????
    203a:	91 00       	.word	0x0091	; ????
    203c:	98 0c       	add	r9, r8
    203e:	00 00       	nop
    2040:	00 00       	nop
    2042:	00 00       	nop
    2044:	44 00       	.word	0x0044	; ????
    2046:	92 00       	.word	0x0092	; ????
    2048:	9a 0c       	add	r9, r10
    204a:	00 00       	nop
    204c:	00 00       	nop
    204e:	00 00       	nop
    2050:	44 00       	.word	0x0044	; ????
    2052:	93 00       	.word	0x0093	; ????
    2054:	9c 0c       	add	r9, r12
    2056:	00 00       	nop
    2058:	00 00       	nop
    205a:	00 00       	nop
    205c:	44 00       	.word	0x0044	; ????
    205e:	94 00       	.word	0x0094	; ????
    2060:	9e 0c       	add	r9, r14
    2062:	00 00       	nop
    2064:	00 00       	nop
    2066:	00 00       	nop
    2068:	44 00       	.word	0x0044	; ????
    206a:	95 00       	.word	0x0095	; ????
    206c:	a0 0c       	add	r10, r0
    206e:	00 00       	nop
    2070:	00 00       	nop
    2072:	00 00       	nop
    2074:	44 00       	.word	0x0044	; ????
    2076:	96 00       	.word	0x0096	; ????
    2078:	a2 0c       	add	r10, r2
    207a:	00 00       	nop
    207c:	00 00       	nop
    207e:	00 00       	nop
    2080:	44 00       	.word	0x0044	; ????
    2082:	97 00       	.word	0x0097	; ????
    2084:	a4 0c       	add	r10, r4
    2086:	00 00       	nop
    2088:	00 00       	nop
    208a:	00 00       	nop
    208c:	44 00       	.word	0x0044	; ????
    208e:	98 00       	.word	0x0098	; ????
    2090:	a6 0c       	add	r10, r6
    2092:	00 00       	nop
    2094:	00 00       	nop
    2096:	00 00       	nop
    2098:	44 00       	.word	0x0044	; ????
    209a:	9c 00       	.word	0x009c	; ????
    209c:	a8 0c       	add	r10, r8
	...

Disassembly of section .stabstr:

00000000 <.stabstr>:
       0:	00 2f       	mov	r16, r16
       2:	74 6d       	ori	r23, 0xD4	; 212
       4:	70 2f       	mov	r23, r16
       6:	63 63       	ori	r22, 0x33	; 51
       8:	58 62       	ori	r21, 0x28	; 40
       a:	74 70       	andi	r23, 0x04	; 4
       c:	31 36       	cpi	r19, 0x61	; 97
       e:	2e 73       	andi	r18, 0x3E	; 62
      10:	00 76       	andi	r16, 0x60	; 96
      12:	6f 69       	ori	r22, 0x9F	; 159
      14:	64 3a       	cpi	r22, 0xA4	; 164
      16:	74 31       	cpi	r23, 0x14	; 20
      18:	3d 31       	cpi	r19, 0x1D	; 29
      1a:	00 5f       	subi	r16, 0xF0	; 240
      1c:	5f 76       	andi	r21, 0x6F	; 111
      1e:	65 63       	ori	r22, 0x35	; 53
      20:	74 6f       	ori	r23, 0xF4	; 244
      22:	72 73       	andi	r23, 0x32	; 50
      24:	3a 46       	sbci	r19, 0x6A	; 106
      26:	31 00       	.word	0x0031	; ????
      28:	2e 2e       	mov	r2, r30
      2a:	2f 2e       	mov	r2, r31
      2c:	2e 2f       	mov	r18, r30
      2e:	2e 2e       	mov	r2, r30
      30:	2f 2e       	mov	r2, r31
      32:	2e 2f       	mov	r18, r30
      34:	63 72       	andi	r22, 0x23	; 35
      36:	74 31       	cpi	r23, 0x14	; 20
      38:	2f 67       	ori	r18, 0x7F	; 127
      3a:	63 72       	andi	r22, 0x23	; 35
      3c:	74 31       	cpi	r23, 0x14	; 20
      3e:	2e 53       	subi	r18, 0x3E	; 62
      40:	00 5f       	subi	r16, 0xF0	; 240
      42:	5f 62       	ori	r21, 0x2F	; 47
      44:	61 64       	ori	r22, 0x41	; 65
      46:	5f 69       	ori	r21, 0x9F	; 159
      48:	6e 74       	andi	r22, 0x4E	; 78
      4a:	65 72       	andi	r22, 0x25	; 37
      4c:	72 75       	andi	r23, 0x52	; 82
      4e:	70 74       	andi	r23, 0x40	; 64
      50:	3a 46       	sbci	r19, 0x6A	; 106
      52:	31 00       	.word	0x0031	; ????
      54:	2f 68       	ori	r18, 0x8F	; 143
      56:	6f 6d       	ori	r22, 0xDF	; 223
      58:	65 2f       	mov	r22, r21
      5a:	65 72       	andi	r22, 0x25	; 37
      5c:	69 63       	ori	r22, 0x39	; 57
      5e:	2f 33       	cpi	r18, 0x3F	; 63
      60:	44 50       	subi	r20, 0x04	; 4
      62:	72 69       	ori	r23, 0x92	; 146
      64:	6e 74       	andi	r22, 0x4E	; 78
      66:	65 72       	andi	r22, 0x25	; 37
      68:	2f 44       	sbci	r18, 0x4F	; 79
      6a:	72 61       	ori	r23, 0x12	; 18
      6c:	61 69       	ori	r22, 0x91	; 145
      6e:	73 63       	ori	r23, 0x33	; 51
      70:	68 69       	ori	r22, 0x98	; 152
      72:	6a 66       	ori	r22, 0x6A	; 106
      74:	2f 44       	sbci	r18, 0x4F	; 79
      76:	72 61       	ori	r23, 0x12	; 18
      78:	61 69       	ori	r22, 0x91	; 145
      7a:	53 63       	ori	r21, 0x33	; 51
      7c:	68 69       	ori	r22, 0x98	; 152
      7e:	6a 66       	ori	r22, 0x6A	; 106
      80:	43 6f       	ori	r20, 0xF3	; 243
      82:	6e 74       	andi	r22, 0x4E	; 78
      84:	72 6f       	ori	r23, 0xF2	; 242
      86:	6c 6c       	ori	r22, 0xCC	; 204
      88:	65 72       	andi	r22, 0x25	; 37
      8a:	2f 00       	.word	0x002f	; ????
      8c:	6d 61       	ori	r22, 0x1D	; 29
      8e:	69 6e       	ori	r22, 0xE9	; 233
      90:	2e 63       	ori	r18, 0x3E	; 62
      92:	00 67       	ori	r16, 0x70	; 112
      94:	63 63       	ori	r22, 0x33	; 51
      96:	32 5f       	subi	r19, 0xF2	; 242
      98:	63 6f       	ori	r22, 0xF3	; 243
      9a:	6d 70       	andi	r22, 0x0D	; 13
      9c:	69 6c       	ori	r22, 0xC9	; 201
      9e:	65 64       	ori	r22, 0x45	; 69
      a0:	2e 00       	.word	0x002e	; ????
      a2:	69 6e       	ori	r22, 0xE9	; 233
      a4:	74 3a       	cpi	r23, 0xA4	; 164
      a6:	74 28       	or	r7, r4
      a8:	30 2c       	mov	r3, r0
      aa:	31 29       	or	r19, r1
      ac:	3d 72       	andi	r19, 0x2D	; 45
      ae:	28 30       	cpi	r18, 0x08	; 8
      b0:	2c 31       	cpi	r18, 0x1C	; 28
      b2:	29 3b       	cpi	r18, 0xB9	; 185
      b4:	2d 33       	cpi	r18, 0x3D	; 61
      b6:	32 37       	cpi	r19, 0x72	; 114
      b8:	36 38       	cpi	r19, 0x86	; 134
      ba:	3b 33       	cpi	r19, 0x3B	; 59
      bc:	32 37       	cpi	r19, 0x72	; 114
      be:	36 37       	cpi	r19, 0x76	; 118
      c0:	3b 00       	.word	0x003b	; ????
      c2:	63 68       	ori	r22, 0x83	; 131
      c4:	61 72       	andi	r22, 0x21	; 33
      c6:	3a 74       	andi	r19, 0x4A	; 74
      c8:	28 30       	cpi	r18, 0x08	; 8
      ca:	2c 32       	cpi	r18, 0x2C	; 44
      cc:	29 3d       	cpi	r18, 0xD9	; 217
      ce:	72 28       	or	r7, r2
      d0:	30 2c       	mov	r3, r0
      d2:	32 29       	or	r19, r2
      d4:	3b 30       	cpi	r19, 0x0B	; 11
      d6:	3b 31       	cpi	r19, 0x1B	; 27
      d8:	32 37       	cpi	r19, 0x72	; 114
      da:	3b 00       	.word	0x003b	; ????
      dc:	6c 6f       	ori	r22, 0xFC	; 252
      de:	6e 67       	ori	r22, 0x7E	; 126
      e0:	20 69       	ori	r18, 0x90	; 144
      e2:	6e 74       	andi	r22, 0x4E	; 78
      e4:	3a 74       	andi	r19, 0x4A	; 74
      e6:	28 30       	cpi	r18, 0x08	; 8
      e8:	2c 33       	cpi	r18, 0x3C	; 60
      ea:	29 3d       	cpi	r18, 0xD9	; 217
      ec:	40 73       	andi	r20, 0x30	; 48
      ee:	33 32       	cpi	r19, 0x23	; 35
      f0:	3b 72       	andi	r19, 0x2B	; 43
      f2:	28 30       	cpi	r18, 0x08	; 8
      f4:	2c 33       	cpi	r18, 0x3C	; 60
      f6:	29 3b       	cpi	r18, 0xB9	; 185
      f8:	30 32       	cpi	r19, 0x20	; 32
      fa:	30 30       	cpi	r19, 0x00	; 0
      fc:	30 30       	cpi	r19, 0x00	; 0
      fe:	30 30       	cpi	r19, 0x00	; 0
     100:	30 30       	cpi	r19, 0x00	; 0
     102:	30 30       	cpi	r19, 0x00	; 0
     104:	3b 30       	cpi	r19, 0x0B	; 11
     106:	31 37       	cpi	r19, 0x71	; 113
     108:	37 37       	cpi	r19, 0x77	; 119
     10a:	37 37       	cpi	r19, 0x77	; 119
     10c:	37 37       	cpi	r19, 0x77	; 119
     10e:	37 37       	cpi	r19, 0x77	; 119
     110:	37 3b       	cpi	r19, 0xB7	; 183
     112:	00 75       	andi	r16, 0x50	; 80
     114:	6e 73       	andi	r22, 0x3E	; 62
     116:	69 67       	ori	r22, 0x79	; 121
     118:	6e 65       	ori	r22, 0x5E	; 94
     11a:	64 20       	and	r6, r4
     11c:	69 6e       	ori	r22, 0xE9	; 233
     11e:	74 3a       	cpi	r23, 0xA4	; 164
     120:	74 28       	or	r7, r4
     122:	30 2c       	mov	r3, r0
     124:	34 29       	or	r19, r4
     126:	3d 72       	andi	r19, 0x2D	; 45
     128:	28 30       	cpi	r18, 0x08	; 8
     12a:	2c 34       	cpi	r18, 0x4C	; 76
     12c:	29 3b       	cpi	r18, 0xB9	; 185
     12e:	30 3b       	cpi	r19, 0xB0	; 176
     130:	30 31       	cpi	r19, 0x10	; 16
     132:	37 37       	cpi	r19, 0x77	; 119
     134:	37 37       	cpi	r19, 0x77	; 119
     136:	37 3b       	cpi	r19, 0xB7	; 183
     138:	00 6c       	ori	r16, 0xC0	; 192
     13a:	6f 6e       	ori	r22, 0xEF	; 239
     13c:	67 20       	and	r6, r7
     13e:	75 6e       	ori	r23, 0xE5	; 229
     140:	73 69       	ori	r23, 0x93	; 147
     142:	67 6e       	ori	r22, 0xE7	; 231
     144:	65 64       	ori	r22, 0x45	; 69
     146:	20 69       	ori	r18, 0x90	; 144
     148:	6e 74       	andi	r22, 0x4E	; 78
     14a:	3a 74       	andi	r19, 0x4A	; 74
     14c:	28 30       	cpi	r18, 0x08	; 8
     14e:	2c 35       	cpi	r18, 0x5C	; 92
     150:	29 3d       	cpi	r18, 0xD9	; 217
     152:	40 73       	andi	r20, 0x30	; 48
     154:	33 32       	cpi	r19, 0x23	; 35
     156:	3b 72       	andi	r19, 0x2B	; 43
     158:	28 30       	cpi	r18, 0x08	; 8
     15a:	2c 35       	cpi	r18, 0x5C	; 92
     15c:	29 3b       	cpi	r18, 0xB9	; 185
     15e:	30 3b       	cpi	r19, 0xB0	; 176
     160:	30 33       	cpi	r19, 0x30	; 48
     162:	37 37       	cpi	r19, 0x77	; 119
     164:	37 37       	cpi	r19, 0x77	; 119
     166:	37 37       	cpi	r19, 0x77	; 119
     168:	37 37       	cpi	r19, 0x77	; 119
     16a:	37 37       	cpi	r19, 0x77	; 119
     16c:	3b 00       	.word	0x003b	; ????
     16e:	6c 6f       	ori	r22, 0xFC	; 252
     170:	6e 67       	ori	r22, 0x7E	; 126
     172:	20 6c       	ori	r18, 0xC0	; 192
     174:	6f 6e       	ori	r22, 0xEF	; 239
     176:	67 20       	and	r6, r7
     178:	69 6e       	ori	r22, 0xE9	; 233
     17a:	74 3a       	cpi	r23, 0xA4	; 164
     17c:	74 28       	or	r7, r4
     17e:	30 2c       	mov	r3, r0
     180:	36 29       	or	r19, r6
     182:	3d 40       	sbci	r19, 0x0D	; 13
     184:	73 36       	cpi	r23, 0x63	; 99
     186:	34 3b       	cpi	r19, 0xB4	; 180
     188:	72 28       	or	r7, r2
     18a:	30 2c       	mov	r3, r0
     18c:	36 29       	or	r19, r6
     18e:	3b 30       	cpi	r19, 0x0B	; 11
     190:	31 30       	cpi	r19, 0x01	; 1
     192:	30 30       	cpi	r19, 0x00	; 0
     194:	30 30       	cpi	r19, 0x00	; 0
     196:	30 30       	cpi	r19, 0x00	; 0
     198:	30 30       	cpi	r19, 0x00	; 0
     19a:	30 30       	cpi	r19, 0x00	; 0
     19c:	30 30       	cpi	r19, 0x00	; 0
     19e:	30 30       	cpi	r19, 0x00	; 0
     1a0:	30 30       	cpi	r19, 0x00	; 0
     1a2:	30 30       	cpi	r19, 0x00	; 0
     1a4:	30 30       	cpi	r19, 0x00	; 0
     1a6:	3b 30       	cpi	r19, 0x0B	; 11
     1a8:	37 37       	cpi	r19, 0x77	; 119
     1aa:	37 37       	cpi	r19, 0x77	; 119
     1ac:	37 37       	cpi	r19, 0x77	; 119
     1ae:	37 37       	cpi	r19, 0x77	; 119
     1b0:	37 37       	cpi	r19, 0x77	; 119
     1b2:	37 37       	cpi	r19, 0x77	; 119
     1b4:	37 37       	cpi	r19, 0x77	; 119
     1b6:	37 37       	cpi	r19, 0x77	; 119
     1b8:	37 37       	cpi	r19, 0x77	; 119
     1ba:	37 37       	cpi	r19, 0x77	; 119
     1bc:	37 3b       	cpi	r19, 0xB7	; 183
     1be:	00 6c       	ori	r16, 0xC0	; 192
     1c0:	6f 6e       	ori	r22, 0xEF	; 239
     1c2:	67 20       	and	r6, r7
     1c4:	6c 6f       	ori	r22, 0xFC	; 252
     1c6:	6e 67       	ori	r22, 0x7E	; 126
     1c8:	20 75       	andi	r18, 0x50	; 80
     1ca:	6e 73       	andi	r22, 0x3E	; 62
     1cc:	69 67       	ori	r22, 0x79	; 121
     1ce:	6e 65       	ori	r22, 0x5E	; 94
     1d0:	64 20       	and	r6, r4
     1d2:	69 6e       	ori	r22, 0xE9	; 233
     1d4:	74 3a       	cpi	r23, 0xA4	; 164
     1d6:	74 28       	or	r7, r4
     1d8:	30 2c       	mov	r3, r0
     1da:	37 29       	or	r19, r7
     1dc:	3d 40       	sbci	r19, 0x0D	; 13
     1de:	73 36       	cpi	r23, 0x63	; 99
     1e0:	34 3b       	cpi	r19, 0xB4	; 180
     1e2:	72 28       	or	r7, r2
     1e4:	30 2c       	mov	r3, r0
     1e6:	37 29       	or	r19, r7
     1e8:	3b 30       	cpi	r19, 0x0B	; 11
     1ea:	3b 30       	cpi	r19, 0x0B	; 11
     1ec:	31 37       	cpi	r19, 0x71	; 113
     1ee:	37 37       	cpi	r19, 0x77	; 119
     1f0:	37 37       	cpi	r19, 0x77	; 119
     1f2:	37 37       	cpi	r19, 0x77	; 119
     1f4:	37 37       	cpi	r19, 0x77	; 119
     1f6:	37 37       	cpi	r19, 0x77	; 119
     1f8:	37 37       	cpi	r19, 0x77	; 119
     1fa:	37 37       	cpi	r19, 0x77	; 119
     1fc:	37 37       	cpi	r19, 0x77	; 119
     1fe:	37 37       	cpi	r19, 0x77	; 119
     200:	37 37       	cpi	r19, 0x77	; 119
     202:	3b 00       	.word	0x003b	; ????
     204:	73 68       	ori	r23, 0x83	; 131
     206:	6f 72       	andi	r22, 0x2F	; 47
     208:	74 20       	and	r7, r4
     20a:	69 6e       	ori	r22, 0xE9	; 233
     20c:	74 3a       	cpi	r23, 0xA4	; 164
     20e:	74 28       	or	r7, r4
     210:	30 2c       	mov	r3, r0
     212:	38 29       	or	r19, r8
     214:	3d 72       	andi	r19, 0x2D	; 45
     216:	28 30       	cpi	r18, 0x08	; 8
     218:	2c 38       	cpi	r18, 0x8C	; 140
     21a:	29 3b       	cpi	r18, 0xB9	; 185
     21c:	2d 33       	cpi	r18, 0x3D	; 61
     21e:	32 37       	cpi	r19, 0x72	; 114
     220:	36 38       	cpi	r19, 0x86	; 134
     222:	3b 33       	cpi	r19, 0x3B	; 59
     224:	32 37       	cpi	r19, 0x72	; 114
     226:	36 37       	cpi	r19, 0x76	; 118
     228:	3b 00       	.word	0x003b	; ????
     22a:	73 68       	ori	r23, 0x83	; 131
     22c:	6f 72       	andi	r22, 0x2F	; 47
     22e:	74 20       	and	r7, r4
     230:	75 6e       	ori	r23, 0xE5	; 229
     232:	73 69       	ori	r23, 0x93	; 147
     234:	67 6e       	ori	r22, 0xE7	; 231
     236:	65 64       	ori	r22, 0x45	; 69
     238:	20 69       	ori	r18, 0x90	; 144
     23a:	6e 74       	andi	r22, 0x4E	; 78
     23c:	3a 74       	andi	r19, 0x4A	; 74
     23e:	28 30       	cpi	r18, 0x08	; 8
     240:	2c 39       	cpi	r18, 0x9C	; 156
     242:	29 3d       	cpi	r18, 0xD9	; 217
     244:	72 28       	or	r7, r2
     246:	30 2c       	mov	r3, r0
     248:	39 29       	or	r19, r9
     24a:	3b 30       	cpi	r19, 0x0B	; 11
     24c:	3b 30       	cpi	r19, 0x0B	; 11
     24e:	31 37       	cpi	r19, 0x71	; 113
     250:	37 37       	cpi	r19, 0x77	; 119
     252:	37 37       	cpi	r19, 0x77	; 119
     254:	3b 00       	.word	0x003b	; ????
     256:	73 69       	ori	r23, 0x93	; 147
     258:	67 6e       	ori	r22, 0xE7	; 231
     25a:	65 64       	ori	r22, 0x45	; 69
     25c:	20 63       	ori	r18, 0x30	; 48
uint8_t huisDecimation;
bool needsHoming = true;

void Homing()
{
    if (doHoming)
     25e:	68 61       	ori	r22, 0x18	; 24
     260:	72 3a       	cpi	r23, 0xA2	; 162
     262:	74 28       	or	r7, r4
     264:	30 2c       	mov	r3, r0
    {
        if (PINC & (1<<PC2))
     266:	31 30       	cpi	r19, 0x01	; 1
     268:	29 3d       	cpi	r18, 0xD9	; 217
            decimateDrempel = 4;
        }
        else
        {
            // klaar
            decimateDrempel = 40;
     26a:	40 73       	andi	r20, 0x30	; 48
     26c:	38 3b       	cpi	r19, 0xB8	; 184
     26e:	72 28       	or	r7, r2
            step = stepTabel[0][0];
     270:	30 2c       	mov	r3, r0
     272:	31 30       	cpi	r19, 0x01	; 1
     274:	29 3b       	cpi	r18, 0xB9	; 185
     276:	2d 31       	cpi	r18, 0x1D	; 29
     278:	32 38       	cpi	r19, 0x82	; 130
     27a:	3b 31       	cpi	r19, 0x1B	; 27
     27c:	32 37       	cpi	r19, 0x72	; 114
     27e:	3b 00       	.word	0x003b	; ????
            if (step>=0)
     280:	75 6e       	ori	r23, 0xE5	; 229
     282:	73 69       	ori	r23, 0x93	; 147
     284:	67 6e       	ori	r22, 0xE7	; 231
     286:	65 64       	ori	r22, 0x45	; 69
     288:	20 63       	ori	r18, 0x30	; 48
     28a:	68 61       	ori	r22, 0x18	; 24
            {
                PORTB &= ~(1<<PB0); //vooruit
     28c:	72 3a       	cpi	r23, 0xA2	; 162
            else
            {
                PORTB |= (1<<PB0); // terug
                step = -step;
            }
            doHoming = false;
     28e:	74 28       	or	r7, r4
     290:	30 2c       	mov	r3, r0
            needsHoming = false;
     292:	31 31       	cpi	r19, 0x11	; 17
     294:	29 3d       	cpi	r18, 0xD9	; 217
     296:	40 73       	andi	r20, 0x30	; 48
{
    if (doHoming)
    {
        if (PINC & (1<<PC2))
        {
            huidigePositie = 0;
     298:	38 3b       	cpi	r19, 0xB8	; 184
     29a:	72 28       	or	r7, r2
            PORTB |= (1<<PB0); // terug
     29c:	30 2c       	mov	r3, r0
            step = 32000;
     29e:	31 31       	cpi	r19, 0x11	; 17
     2a0:	29 3b       	cpi	r18, 0xB9	; 185
     2a2:	30 3b       	cpi	r19, 0xB0	; 176
     2a4:	32 35       	cpi	r19, 0x52	; 82
     2a6:	35 3b       	cpi	r19, 0xB5	; 181
     2a8:	00 66       	ori	r16, 0x60	; 96
            decimateDrempel = 4;
     2aa:	6c 6f       	ori	r22, 0xFC	; 252
     2ac:	61 74       	andi	r22, 0x41	; 65
     2ae:	3a 74       	andi	r19, 0x4A	; 74
     2b0:	28 30       	cpi	r18, 0x08	; 8
            {
                PORTB &= ~(1<<PB0); //vooruit
            }
            else
            {
                PORTB |= (1<<PB0); // terug
     2b2:	2c 31       	cpi	r18, 0x1C	; 28
                step = -step;
     2b4:	32 29       	or	r19, r2
     2b6:	3d 72       	andi	r19, 0x2D	; 45
     2b8:	28 30       	cpi	r18, 0x08	; 8
     2ba:	2c 31       	cpi	r18, 0x1C	; 28
     2bc:	29 3b       	cpi	r18, 0xB9	; 185
     2be:	34 3b       	cpi	r19, 0xB4	; 180
     2c0:	30 3b       	cpi	r19, 0xB0	; 176
     2c2:	00 64       	ori	r16, 0x40	; 64
     2c4:	6f 75       	andi	r22, 0x5F	; 95
     2c6:	62 6c       	ori	r22, 0xC2	; 194
     2c8:	65 3a       	cpi	r22, 0xA5	; 165
     2ca:	74 28       	or	r7, r4
uint8_t huisDecimation;
bool needsHoming = true;

void Homing()
{
    if (doHoming)
     2cc:	30 2c       	mov	r3, r0
     2ce:	31 33       	cpi	r19, 0x31	; 49
     2d0:	29 3d       	cpi	r18, 0xD9	; 217
     2d2:	72 28       	or	r7, r2
    {
        if (PINC & (1<<PC2))
     2d4:	30 2c       	mov	r3, r0
     2d6:	31 29       	or	r19, r1
            decimateDrempel = 4;
        }
        else
        {
            // klaar
            decimateDrempel = 40;
     2d8:	3b 34       	cpi	r19, 0x4B	; 75
     2da:	3b 30       	cpi	r19, 0x0B	; 11
     2dc:	3b 00       	.word	0x003b	; ????
            step = stepTabel[0][0];
     2de:	6c 6f       	ori	r22, 0xFC	; 252
     2e0:	6e 67       	ori	r22, 0x7E	; 126
     2e2:	20 64       	ori	r18, 0x40	; 64
     2e4:	6f 75       	andi	r22, 0x5F	; 95
     2e6:	62 6c       	ori	r22, 0xC2	; 194
     2e8:	65 3a       	cpi	r22, 0xA5	; 165
     2ea:	74 28       	or	r7, r4
     2ec:	30 2c       	mov	r3, r0
            if (step>=0)
     2ee:	31 34       	cpi	r19, 0x41	; 65
     2f0:	29 3d       	cpi	r18, 0xD9	; 217
     2f2:	72 28       	or	r7, r2
     2f4:	30 2c       	mov	r3, r0
     2f6:	31 29       	or	r19, r1
     2f8:	3b 34       	cpi	r19, 0x4B	; 75
            {
                PORTB &= ~(1<<PB0); //vooruit
     2fa:	3b 30       	cpi	r19, 0x0B	; 11
            else
            {
                PORTB |= (1<<PB0); // terug
                step = -step;
            }
            doHoming = false;
     2fc:	3b 00       	.word	0x003b	; ????
     2fe:	73 68       	ori	r23, 0x83	; 131
            needsHoming = false;
     300:	6f 72       	andi	r22, 0x2F	; 47
     302:	74 20       	and	r7, r4
     304:	5f 46       	sbci	r21, 0x6F	; 111
     306:	72 61       	ori	r23, 0x12	; 18

void StepControl()
{
    static uint8_t decimate;
    Homing();
    decimate+=1;
     308:	63 74       	andi	r22, 0x43	; 67
     30a:	3a 74       	andi	r19, 0x4A	; 74
     30c:	28 30       	cpi	r18, 0x08	; 8
     30e:	2c 31       	cpi	r18, 0x1C	; 28
     310:	35 29       	or	r19, r5
    if ((decimate>(decimateDrempel)) && (step!=0))
     312:	3d 72       	andi	r19, 0x2D	; 45
     314:	28 30       	cpi	r18, 0x08	; 8
     316:	2c 31       	cpi	r18, 0x1C	; 28
     318:	29 3b       	cpi	r18, 0xB9	; 185
     31a:	31 3b       	cpi	r19, 0xB1	; 177
     31c:	30 3b       	cpi	r19, 0xB0	; 176
     31e:	00 6c       	ori	r16, 0xC0	; 192
     320:	6f 6e       	ori	r22, 0xEF	; 239
        step -= 1;
        PORTB |= (1<<DDB1);
    }

    static uint8_t drempelSturing =0;
    drempelSturing += 1;
     322:	67 20       	and	r6, r7
     324:	5f 46       	sbci	r21, 0x6F	; 111
     326:	72 61       	ori	r23, 0x12	; 18
    if (drempelSturing > 250)
     328:	63 74       	andi	r22, 0x43	; 67
     32a:	3a 74       	andi	r19, 0x4A	; 74
    {
        drempelSturing =0;
     32c:	28 30       	cpi	r18, 0x08	; 8
     32e:	2c 31       	cpi	r18, 0x1C	; 28
        if (step>800)
     330:	36 29       	or	r19, r6
     332:	3d 72       	andi	r19, 0x2D	; 45
     334:	28 30       	cpi	r18, 0x08	; 8
     336:	2c 31       	cpi	r18, 0x1C	; 28
     338:	29 3b       	cpi	r18, 0xB9	; 185
     33a:	34 3b       	cpi	r19, 0xB4	; 180
     33c:	30 3b       	cpi	r19, 0xB0	; 176
        {
            decimateDrempel -= (decimateDrempel>=2) ? 1: 0;
        }
        else
        {
            decimateDrempel += (decimateDrempel<30) ? 1: 0;
     33e:	00 6c       	ori	r16, 0xC0	; 192
     340:	6f 6e       	ori	r22, 0xEF	; 239
     342:	67 20       	and	r6, r7
     344:	6c 6f       	ori	r22, 0xFC	; 252
     346:	6e 67       	ori	r22, 0x7E	; 126
     348:	20 5f       	subi	r18, 0xF0	; 240
     34a:	46 72       	andi	r20, 0x26	; 38
     34c:	61 63       	ori	r22, 0x31	; 49
        }
    }
    PORTB &= ~(1<<DDB1);
     34e:	74 3a       	cpi	r23, 0xA4	; 164
     350:	74 28       	or	r7, r4
    static uint8_t decimate;
    Homing();
    decimate+=1;
    if ((decimate>(decimateDrempel)) && (step!=0))
    {
        decimate=0;
     352:	30 2c       	mov	r3, r0
     354:	31 37       	cpi	r19, 0x71	; 113
        step -= 1;
     356:	29 3d       	cpi	r18, 0xD9	; 217
     358:	72 28       	or	r7, r2
     35a:	30 2c       	mov	r3, r0
     35c:	31 29       	or	r19, r1
     35e:	3b 38       	cpi	r19, 0x8B	; 139
     360:	3b 30       	cpi	r19, 0x0B	; 11
     362:	3b 00       	.word	0x003b	; ????
     364:	75 6e       	ori	r23, 0xE5	; 229
     366:	73 69       	ori	r23, 0x93	; 147
        PORTB |= (1<<DDB1);
     368:	67 6e       	ori	r22, 0xE7	; 231
    }

    static uint8_t drempelSturing =0;
    drempelSturing += 1;
     36a:	65 64       	ori	r22, 0x45	; 69
     36c:	20 73       	andi	r18, 0x30	; 48
     36e:	68 6f       	ori	r22, 0xF8	; 248
    if (drempelSturing > 250)
     370:	72 74       	andi	r23, 0x42	; 66
     372:	20 5f       	subi	r18, 0xF0	; 240
        step -= 1;
        PORTB |= (1<<DDB1);
    }

    static uint8_t drempelSturing =0;
    drempelSturing += 1;
     374:	46 72       	andi	r20, 0x26	; 38
     376:	61 63       	ori	r22, 0x31	; 49
        else
        {
            decimateDrempel += (decimateDrempel<30) ? 1: 0;
        }
    }
    PORTB &= ~(1<<DDB1);
     378:	74 3a       	cpi	r23, 0xA4	; 164
     37a:	74 28       	or	r7, r4
    if (drempelSturing > 250)
    {
        drempelSturing =0;
        if (step>800)
        {
            decimateDrempel -= (decimateDrempel>=2) ? 1: 0;
     37c:	30 2c       	mov	r3, r0
     37e:	31 38       	cpi	r19, 0x81	; 129
     380:	29 3d       	cpi	r18, 0xD9	; 217
     382:	72 28       	or	r7, r2
     384:	30 2c       	mov	r3, r0
     386:	31 29       	or	r19, r1
     388:	3b 31       	cpi	r19, 0x1B	; 27
     38a:	3b 30       	cpi	r19, 0x0B	; 11
        else
        {
            decimateDrempel += (decimateDrempel<30) ? 1: 0;
        }
    }
    PORTB &= ~(1<<DDB1);
     38c:	3b 00       	.word	0x003b	; ????
     38e:	75 6e       	ori	r23, 0xE5	; 229
{
    if (doHoming)
    {
        if (PINC & (1<<PC2))
        {
            huidigePositie = 0;
     390:	73 69       	ori	r23, 0x93	; 147
     392:	67 6e       	ori	r22, 0xE7	; 231
            PORTB |= (1<<PB0); // terug
     394:	65 64       	ori	r22, 0x45	; 69
            step = 32000;
     396:	20 5f       	subi	r18, 0xF0	; 240
     398:	46 72       	andi	r20, 0x26	; 38
     39a:	61 63       	ori	r22, 0x31	; 49
     39c:	74 3a       	cpi	r23, 0xA4	; 164
     39e:	74 28       	or	r7, r4
     3a0:	30 2c       	mov	r3, r0
            decimateDrempel = 4;
     3a2:	31 39       	cpi	r19, 0x91	; 145
     3a4:	29 3d       	cpi	r18, 0xD9	; 217
     3a6:	72 28       	or	r7, r2
     3a8:	30 2c       	mov	r3, r0
     3aa:	31 29       	or	r19, r1
        {
            decimateDrempel -= (decimateDrempel>=2) ? 1: 0;
        }
        else
        {
            decimateDrempel += (decimateDrempel<30) ? 1: 0;
     3ac:	3b 32       	cpi	r19, 0x2B	; 43
     3ae:	3b 30       	cpi	r19, 0x0B	; 11
    if (drempelSturing > 250)
    {
        drempelSturing =0;
        if (step>800)
        {
            decimateDrempel -= (decimateDrempel>=2) ? 1: 0;
     3b0:	3b 00       	.word	0x003b	; ????
     3b2:	75 6e       	ori	r23, 0xE5	; 229
     3b4:	73 69       	ori	r23, 0x93	; 147
     3b6:	67 6e       	ori	r22, 0xE7	; 231
     3b8:	65 64       	ori	r22, 0x45	; 69
            {
                PORTB &= ~(1<<PB0); //vooruit
            }
            else
            {
                PORTB |= (1<<PB0); // terug
     3ba:	20 6c       	ori	r18, 0xC0	; 192
                step = -step;
     3bc:	6f 6e       	ori	r22, 0xEF	; 239
     3be:	67 20       	and	r6, r7
     3c0:	5f 46       	sbci	r21, 0x6F	; 111
     3c2:	72 61       	ori	r23, 0x12	; 18
     3c4:	63 74       	andi	r22, 0x43	; 67
     3c6:	3a 74       	andi	r19, 0x4A	; 74
     3c8:	28 30       	cpi	r18, 0x08	; 8
     3ca:	2c 32       	cpi	r18, 0x2C	; 44
     3cc:	30 29       	or	r19, r0
     3ce:	3d 72       	andi	r19, 0x2D	; 45
     3d0:	28 30       	cpi	r18, 0x08	; 8
     3d2:	2c 31       	cpi	r18, 0x1C	; 28
    }
    PORTB &= ~(1<<DDB1);
}

ISR(USART_RXC_vect)
{
     3d4:	29 3b       	cpi	r18, 0xB9	; 185
     3d6:	34 3b       	cpi	r19, 0xB4	; 180
     3d8:	30 3b       	cpi	r19, 0xB0	; 176
     3da:	00 75       	andi	r16, 0x50	; 80
     3dc:	6e 73       	andi	r22, 0x3E	; 62
     3de:	69 67       	ori	r22, 0x79	; 121
     3e0:	6e 65       	ori	r22, 0x5E	; 94
     3e2:	64 20       	and	r6, r4
     3e4:	6c 6f       	ori	r22, 0xFC	; 252
     3e6:	6e 67       	ori	r22, 0x7E	; 126
     3e8:	20 6c       	ori	r18, 0xC0	; 192
     3ea:	6f 6e       	ori	r22, 0xEF	; 239
     3ec:	67 20       	and	r6, r7
     3ee:	5f 46       	sbci	r21, 0x6F	; 111
     3f0:	72 61       	ori	r23, 0x12	; 18
     3f2:	63 74       	andi	r22, 0x43	; 67
     3f4:	3a 74       	andi	r19, 0x4A	; 74
     3f6:	28 30       	cpi	r18, 0x08	; 8
     3f8:	2c 32       	cpi	r18, 0x2C	; 44
     3fa:	31 29       	or	r19, r1
     3fc:	3d 72       	andi	r19, 0x2D	; 45
     3fe:	28 30       	cpi	r18, 0x08	; 8
    uartData1 = uartData2;
     400:	2c 31       	cpi	r18, 0x1C	; 28
     402:	29 3b       	cpi	r18, 0xB9	; 185
     404:	38 3b       	cpi	r19, 0xB8	; 184
     406:	30 3b       	cpi	r19, 0xB0	; 176
    uartData2 = UDR;
     408:	00 5f       	subi	r16, 0xF0	; 240
     40a:	53 61       	ori	r21, 0x13	; 19
     40c:	74 20       	and	r7, r4
    if (!inSync)
     40e:	73 68       	ori	r23, 0x83	; 131
     410:	6f 72       	andi	r22, 0x2F	; 47
     412:	74 20       	and	r7, r4
     414:	5f 46       	sbci	r21, 0x6F	; 111
    {
        // out of sync
        // set het brugblok uit
        DDRD &= ~(1<<PD7);
     416:	72 61       	ori	r23, 0x12	; 18
        PORTD &= ~(1<<PD7);
     418:	63 74       	andi	r22, 0x43	; 67
        if ((uartData1 ==0) && (uartData2==0))
     41a:	3a 74       	andi	r19, 0x4A	; 74
     41c:	28 30       	cpi	r18, 0x08	; 8
     41e:	2c 32       	cpi	r18, 0x2C	; 44
     420:	32 29       	or	r19, r2
     422:	3d 72       	andi	r19, 0x2D	; 45
     424:	28 30       	cpi	r18, 0x08	; 8
     426:	2c 31       	cpi	r18, 0x1C	; 28
     428:	29 3b       	cpi	r18, 0xB9	; 185
        {
            // sync gevonden
            byteCount = 2;
     42a:	31 3b       	cpi	r19, 0xB1	; 177
     42c:	30 3b       	cpi	r19, 0xB0	; 176
     42e:	00 5f       	subi	r16, 0xF0	; 240
            pulseBreedteCount=0;
            // zit nog iets meer aanvast
        }

    }
}
     430:	53 61       	ori	r21, 0x13	; 19
     432:	74 20       	and	r7, r4
     434:	5f 46       	sbci	r21, 0x6F	; 111
     436:	72 61       	ori	r23, 0x12	; 18
     438:	63 74       	andi	r22, 0x43	; 67
     43a:	3a 74       	andi	r19, 0x4A	; 74
     43c:	28 30       	cpi	r18, 0x08	; 8
     43e:	2c 32       	cpi	r18, 0x2C	; 44
     440:	33 29       	or	r19, r3
     442:	3d 72       	andi	r19, 0x2D	; 45
     444:	28 30       	cpi	r18, 0x08	; 8
     446:	2c 31       	cpi	r18, 0x1C	; 28
     448:	29 3b       	cpi	r18, 0xB9	; 185
     44a:	32 3b       	cpi	r19, 0xB2	; 178
     44c:	30 3b       	cpi	r19, 0xB0	; 176
     44e:	00 5f       	subi	r16, 0xF0	; 240
     450:	53 61       	ori	r21, 0x13	; 19
     452:	74 20       	and	r7, r4
     454:	6c 6f       	ori	r22, 0xFC	; 252
     456:	6e 67       	ori	r22, 0x7E	; 126
     458:	20 5f       	subi	r18, 0xF0	; 240
        }
    }
    else
    {
        // main programma zet deze op 0 als we 2 bytes bereiken
        byteCount += 1;
     45a:	46 72       	andi	r20, 0x26	; 38
     45c:	61 63       	ori	r22, 0x31	; 49
     45e:	74 3a       	cpi	r23, 0xA4	; 164
     460:	74 28       	or	r7, r4
     462:	30 2c       	mov	r3, r0
        // nu eerst de DA converter starten
        // save de status van het brugblok bij de start van de AD converter
        brugBlokDDR = DDRD;
     464:	32 34       	cpi	r19, 0x42	; 66
     466:	29 3d       	cpi	r18, 0xD9	; 217
     468:	72 28       	or	r7, r2
        ADCSR |= (1<<ADSC); // start de AD conversie de multiplexer word nu niet ingesteld ik neem aan dat die goed staat voor 1 blok
     46a:	30 2c       	mov	r3, r0

        // wacht lus want anders is de adc nog niet klaar met sample hold voordat de uitgang wijzigd.
        // nu 48us voordat de uitgang wijzigd en grogweg 70us nadat de uitgang wijzigd (heb 1.5 adc clock out of 13.5 nodig voor sample hold)
        for (volatile int i=0;i<30;i++);
     46c:	31 29       	or	r19, r1
     46e:	3b 34       	cpi	r19, 0x4B	; 75
     470:	3b 30       	cpi	r19, 0x0B	; 11
     472:	3b 00       	.word	0x003b	; ????
     474:	5f 53       	subi	r21, 0x3F	; 63
     476:	61 74       	andi	r22, 0x41	; 65
     478:	20 6c       	ori	r18, 0xC0	; 192
     47a:	6f 6e       	ori	r22, 0xEF	; 239
     47c:	67 20       	and	r6, r7
     47e:	6c 6f       	ori	r22, 0xFC	; 252
     480:	6e 67       	ori	r22, 0x7E	; 126
     482:	20 5f       	subi	r18, 0xF0	; 240
     484:	46 72       	andi	r20, 0x26	; 38
     486:	61 63       	ori	r22, 0x31	; 49
     488:	74 3a       	cpi	r23, 0xA4	; 164

        StepControl();
     48a:	74 28       	or	r7, r4
        if (middenDetectie)
     48c:	30 2c       	mov	r3, r0
     48e:	32 35       	cpi	r19, 0x52	; 82
     490:	29 3d       	cpi	r18, 0xD9	; 217
     492:	72 28       	or	r7, r2
        {
            if ((PINC & (1<<PC3)) == 0)
     494:	30 2c       	mov	r3, r0
     496:	31 29       	or	r19, r1
            {
                // loc detected
                middenDetected = true;
     498:	3b 38       	cpi	r19, 0x8B	; 139
     49a:	3b 30       	cpi	r19, 0x0B	; 11
     49c:	3b 00       	.word	0x003b	; ????
                snelheid = snelheid &0x80; // onthoud richting
     49e:	5f 53       	subi	r21, 0x3F	; 63
     4a0:	61 74       	andi	r22, 0x41	; 65
     4a2:	20 75       	andi	r18, 0x50	; 80
     4a4:	6e 73       	andi	r22, 0x3E	; 62
     4a6:	69 67       	ori	r22, 0x79	; 121
            }
        }

        uint8_t snel = (snelheid & 0x40) ? 0: snelheid; // als er kortsluiting is dan 0 gebruiken
     4a8:	6e 65       	ori	r22, 0x5E	; 94
     4aa:	64 20       	and	r6, r4
     4ac:	73 68       	ori	r23, 0x83	; 131
     4ae:	6f 72       	andi	r22, 0x2F	; 47
     4b0:	74 20       	and	r7, r4
     4b2:	5f 46       	sbci	r21, 0x6F	; 111
        uint8_t pulse = pgm_read_byte(&pulseTabel[snel&0x3f][pulseBreedteCount>>3]);
     4b4:	72 61       	ori	r23, 0x12	; 18
     4b6:	63 74       	andi	r22, 0x43	; 67
     4b8:	3a 74       	andi	r19, 0x4A	; 74
     4ba:	28 30       	cpi	r18, 0x08	; 8
     4bc:	2c 32       	cpi	r18, 0x2C	; 44
     4be:	36 29       	or	r19, r6
     4c0:	3d 72       	andi	r19, 0x2D	; 45
     4c2:	28 30       	cpi	r18, 0x08	; 8
     4c4:	2c 31       	cpi	r18, 0x1C	; 28
     4c6:	29 3b       	cpi	r18, 0xB9	; 185
     4c8:	31 3b       	cpi	r19, 0xB1	; 177
     4ca:	30 3b       	cpi	r19, 0xB0	; 176
     4cc:	00 5f       	subi	r16, 0xF0	; 240
     4ce:	53 61       	ori	r21, 0x13	; 19
     4d0:	74 20       	and	r7, r4
     4d2:	75 6e       	ori	r23, 0xE5	; 229
        if (pulse & (1<<(pulseBreedteCount&0x7)))
     4d4:	73 69       	ori	r23, 0x93	; 147
     4d6:	67 6e       	ori	r22, 0xE7	; 231
     4d8:	65 64       	ori	r22, 0x45	; 69
     4da:	20 5f       	subi	r18, 0xF0	; 240
     4dc:	46 72       	andi	r20, 0x26	; 38
     4de:	61 63       	ori	r22, 0x31	; 49
     4e0:	74 3a       	cpi	r23, 0xA4	; 164
     4e2:	74 28       	or	r7, r4
     4e4:	30 2c       	mov	r3, r0
     4e6:	32 37       	cpi	r19, 0x72	; 114
     4e8:	29 3d       	cpi	r18, 0xD9	; 217
        {
            // moet spanning geleverd worden
            // toevalig zit brugBlok op bit 7 en is riching bepaald door bit 7 in snelheid:)
            PORTD = (snelheid&0x80) | (PORTD&0x7f);
     4ea:	72 28       	or	r7, r2
     4ec:	30 2c       	mov	r3, r0
     4ee:	31 29       	or	r19, r1
     4f0:	3b 32       	cpi	r19, 0x2B	; 43
     4f2:	3b 30       	cpi	r19, 0x0B	; 11
     4f4:	3b 00       	.word	0x003b	; ????
     4f6:	5f 53       	subi	r21, 0x3F	; 63
            DDRD |= (1<<DDD7);
     4f8:	61 74       	andi	r22, 0x41	; 65
            PORTD &= ~(1<<DDD7);
            DDRD &= ~(1<<DDD7);
        }


        pulseBreedteCount += 1;
     4fa:	20 75       	andi	r18, 0x50	; 80
     4fc:	6e 73       	andi	r22, 0x3E	; 62
     4fe:	69 67       	ori	r22, 0x79	; 121
     500:	6e 65       	ori	r22, 0x5E	; 94
     502:	64 20       	and	r6, r4
        if (pulseBreedteCount == AANTAL_PULSEN)
     504:	6c 6f       	ori	r22, 0xFC	; 252
     506:	6e 67       	ori	r22, 0x7E	; 126
     508:	20 5f       	subi	r18, 0xF0	; 240
     50a:	46 72       	andi	r20, 0x26	; 38
     50c:	61 63       	ori	r22, 0x31	; 49
        {
            pulseBreedteCount=0;
     50e:	74 3a       	cpi	r23, 0xA4	; 164
     510:	74 28       	or	r7, r4
     512:	30 2c       	mov	r3, r0
                middenDetected = true;
                snelheid = snelheid &0x80; // onthoud richting
            }
        }

        uint8_t snel = (snelheid & 0x40) ? 0: snelheid; // als er kortsluiting is dan 0 gebruiken
     514:	32 38       	cpi	r19, 0x82	; 130
     516:	29 3d       	cpi	r18, 0xD9	; 217
     518:	72 28       	or	r7, r2
     51a:	30 2c       	mov	r3, r0
     51c:	31 29       	or	r19, r1
            DDRD |= (1<<DDD7);
        }
        else
        {
            // geen spanning dus uitgang zwevend (geen pullup dus port op 0
            PORTD &= ~(1<<DDD7);
     51e:	3b 34       	cpi	r19, 0x4B	; 75
            DDRD &= ~(1<<DDD7);
     520:	3b 30       	cpi	r19, 0x0B	; 11
     522:	3b 00       	.word	0x003b	; ????



// tijdelijk voor testen
ISR(USART_UDRE_vect)
{
     524:	5f 53       	subi	r21, 0x3F	; 63
     526:	61 74       	andi	r22, 0x41	; 65
     528:	20 75       	andi	r18, 0x50	; 80
     52a:	6e 73       	andi	r22, 0x3E	; 62
     52c:	69 67       	ori	r22, 0x79	; 121
//    UDR = 0xf0;
}
     52e:	6e 65       	ori	r22, 0x5E	; 94
     530:	64 20       	and	r6, r4
     532:	6c 6f       	ori	r22, 0xFC	; 252
     534:	6e 67       	ori	r22, 0x7E	; 126
     536:	20 6c       	ori	r18, 0xC0	; 192


ISR(ADC_vect)
{
     538:	6f 6e       	ori	r22, 0xEF	; 239
     53a:	67 20       	and	r6, r7
     53c:	5f 46       	sbci	r21, 0x6F	; 111
     53e:	72 61       	ori	r23, 0x12	; 18
     540:	63 74       	andi	r22, 0x43	; 67
     542:	3a 74       	andi	r19, 0x4A	; 74
     544:	28 30       	cpi	r18, 0x08	; 8
     546:	2c 32       	cpi	r18, 0x2C	; 44
     548:	39 29       	or	r19, r9
     54a:	3d 72       	andi	r19, 0x2D	; 45
    // LSB x x x x x x x x
    // waarbij x een AD bit is. Tezien is dat het 16bit getal uit de AD
    // geheel naar beneden is geschaald. Wil ik zodadelijk alleen het MSB
    // uit het filter pakken dan gooi ik bijna alle bitten weg. Dus moet
    // het AD getal met 64 vermenigvuldigd worden
    uint16_t input = ADCL + (ADCH<<8);
     54c:	28 30       	cpi	r18, 0x08	; 8
     54e:	2c 31       	cpi	r18, 0x1C	; 28
     550:	29 3b       	cpi	r18, 0xB9	; 185
     552:	38 3b       	cpi	r19, 0xB8	; 184
     554:	30 3b       	cpi	r19, 0xB0	; 176
     556:	00 73       	andi	r16, 0x30	; 48
     558:	68 6f       	ori	r22, 0xF8	; 248
    // elk kanaal een appart filter en ook een
    // apart filter voor spanning en geen spanning
    //
    // convert adInput number to a bit mask

    uint16_t output = blokOff;
     55a:	72 74       	andi	r23, 0x42	; 66
     55c:	20 5f       	subi	r18, 0xF0	; 240
     55e:	41 63       	ori	r20, 0x31	; 49
     560:	63 75       	andi	r22, 0x53	; 83
    if (brugBlokDDR & (1<<DDD7))
     562:	6d 3a       	cpi	r22, 0xAD	; 173
     564:	74 28       	or	r7, r4
     566:	30 2c       	mov	r3, r0
     568:	33 30       	cpi	r19, 0x03	; 3
    // optellen. Bij deze optelling kan een overflow onstaan gelukkig
    // is het filter zo dat ik kan garanderen dat input en output binnen
    // een 16bit word passen dus zal een evetuele tijdelijk overflow in een
    // tussen resultaat geen probleem opleveren.
    //output = input+output - (output>>4);
    output = input+output - (output>>6);
     56a:	29 3d       	cpi	r18, 0xD9	; 217
     56c:	72 28       	or	r7, r2
     56e:	30 2c       	mov	r3, r0
     570:	31 29       	or	r19, r1
     572:	3b 32       	cpi	r19, 0x2B	; 43
     574:	3b 30       	cpi	r19, 0x0B	; 11
     576:	3b 00       	.word	0x003b	; ????
     578:	6c 6f       	ori	r22, 0xFC	; 252
     57a:	6e 67       	ori	r22, 0x7E	; 126
     57c:	20 5f       	subi	r18, 0xF0	; 240
     57e:	41 63       	ori	r20, 0x31	; 49
     580:	63 75       	andi	r22, 0x53	; 83
     582:	6d 3a       	cpi	r22, 0xAD	; 173

    if (brugBlokDDR & (1<<DDD7))
     584:	74 28       	or	r7, r4
     586:	30 2c       	mov	r3, r0
     588:	33 31       	cpi	r19, 0x13	; 19
     58a:	29 3d       	cpi	r18, 0xD9	; 217
        }
        blokOn = output;
    }
    else
    {
        blokOff = output;
     58c:	72 28       	or	r7, r2
     58e:	30 2c       	mov	r3, r0
     590:	31 29       	or	r19, r1
     592:	3b 38       	cpi	r19, 0x8B	; 139
    }
}
     594:	3b 30       	cpi	r19, 0x0B	; 11
     596:	3b 00       	.word	0x003b	; ????
     598:	6c 6f       	ori	r22, 0xFC	; 252
     59a:	6e 67       	ori	r22, 0x7E	; 126
     59c:	20 6c       	ori	r18, 0xC0	; 192
     59e:	6f 6e       	ori	r22, 0xEF	; 239
     5a0:	67 20       	and	r6, r7
     5a2:	5f 41       	sbci	r21, 0x1F	; 31
     5a4:	63 63       	ori	r22, 0x33	; 51
     5a6:	75 6d       	ori	r23, 0xD5	; 213
    // convert adInput number to a bit mask

    uint16_t output = blokOff;
    if (brugBlokDDR & (1<<DDD7))
    {
        output = blokOn;
     5a8:	3a 74       	andi	r19, 0x4A	; 74
     5aa:	28 30       	cpi	r18, 0x08	; 8
     5ac:	2c 33       	cpi	r18, 0x3C	; 60
     5ae:	32 29       	or	r19, r2
     5b0:	3d 72       	andi	r19, 0x2D	; 45
    output = input+output - (output>>6);

    if (brugBlokDDR & (1<<DDD7))
    {
        // blok heeft spanning
        if ((output > LOW_LEVEL_DREMPEL) && (output < HIGH_LEVEL_DREMPEL))
     5b2:	28 30       	cpi	r18, 0x08	; 8
     5b4:	2c 31       	cpi	r18, 0x1C	; 28
     5b6:	29 3b       	cpi	r18, 0xB9	; 185
     5b8:	38 3b       	cpi	r19, 0xB8	; 184
     5ba:	30 3b       	cpi	r19, 0xB0	; 176
     5bc:	00 75       	andi	r16, 0x50	; 80
        {
            // spanning binnen low en high dus concludeer ik kortsluiting
            // zet dit blok nu uit
            DDRD &= ~(1<<DDD7);
     5be:	6e 73       	andi	r22, 0x3E	; 62
            snelheid |= 0x40;  // zet bit 6 om kortsluiting te melden
     5c0:	69 67       	ori	r22, 0x79	; 121
     5c2:	6e 65       	ori	r22, 0x5E	; 94
     5c4:	64 20       	and	r6, r4
     5c6:	73 68       	ori	r23, 0x83	; 131
     5c8:	6f 72       	andi	r22, 0x2F	; 47
        }
        blokOn = output;
     5ca:	74 20       	and	r7, r4
     5cc:	5f 41       	sbci	r21, 0x1F	; 31
     5ce:	63 63       	ori	r22, 0x33	; 51
     5d0:	75 6d       	ori	r23, 0xD5	; 213
     5d2:	3a 74       	andi	r19, 0x4A	; 74
    }
}

void updatePosition(int8_t update, bool alternateTable)
{
    stepTabel[huidigePositie][alternateTable] += update;
     5d4:	28 30       	cpi	r18, 0x08	; 8
     5d6:	2c 33       	cpi	r18, 0x3C	; 60
     5d8:	33 29       	or	r19, r3
     5da:	3d 72       	andi	r19, 0x2D	; 45
     5dc:	28 30       	cpi	r18, 0x08	; 8
     5de:	2c 31       	cpi	r18, 0x1C	; 28
     5e0:	29 3b       	cpi	r18, 0xB9	; 185
     5e2:	32 3b       	cpi	r19, 0xB2	; 178
     5e4:	30 3b       	cpi	r19, 0xB0	; 176
     5e6:	00 75       	andi	r16, 0x50	; 80
     5e8:	6e 73       	andi	r22, 0x3E	; 62
     5ea:	69 67       	ori	r22, 0x79	; 121
     5ec:	6e 65       	ori	r22, 0x5E	; 94
     5ee:	64 20       	and	r6, r4
     5f0:	5f 41       	sbci	r21, 0x1F	; 31
     5f2:	63 63       	ori	r22, 0x33	; 51
     5f4:	75 6d       	ori	r23, 0xD5	; 213
     5f6:	3a 74       	andi	r19, 0x4A	; 74
     5f8:	28 30       	cpi	r18, 0x08	; 8
     5fa:	2c 33       	cpi	r18, 0x3C	; 60
     5fc:	34 29       	or	r19, r4
     5fe:	3d 72       	andi	r19, 0x2D	; 45
     600:	28 30       	cpi	r18, 0x08	; 8
    if (huidigePositie == 0)
     602:	2c 31       	cpi	r18, 0x1C	; 28
     604:	29 3b       	cpi	r18, 0xB9	; 185
     606:	34 3b       	cpi	r19, 0xB4	; 180
     608:	30 3b       	cpi	r19, 0xB0	; 176
     60a:	00 75       	andi	r16, 0x50	; 80
     60c:	6e 73       	andi	r22, 0x3E	; 62
     60e:	69 67       	ori	r22, 0x79	; 121
     610:	6e 65       	ori	r22, 0x5E	; 94
     612:	64 20       	and	r6, r4
    {
        // voor de home position alles tabel entries updaten
        for (int i=1;i<48;i++)
        {
            stepTabel[i][alternateTable] += update;
     614:	6c 6f       	ori	r22, 0xFC	; 252
     616:	6e 67       	ori	r22, 0x7E	; 126
     618:	20 5f       	subi	r18, 0xF0	; 240
     61a:	41 63       	ori	r20, 0x31	; 49
     61c:	63 75       	andi	r22, 0x53	; 83
     61e:	6d 3a       	cpi	r22, 0xAD	; 173
     620:	74 28       	or	r7, r4
     622:	30 2c       	mov	r3, r0
     624:	33 35       	cpi	r19, 0x53	; 83
{
    stepTabel[huidigePositie][alternateTable] += update;
    if (huidigePositie == 0)
    {
        // voor de home position alles tabel entries updaten
        for (int i=1;i<48;i++)
     626:	29 3d       	cpi	r18, 0xD9	; 217
     628:	72 28       	or	r7, r2
     62a:	30 2c       	mov	r3, r0
        {
            stepTabel[i][alternateTable] += update;
        }
    }
    if (update>=0)
     62c:	31 29       	or	r19, r1
     62e:	3b 38       	cpi	r19, 0x8B	; 139
    {
        PORTB &= ~(1<<PB0);
     630:	3b 30       	cpi	r19, 0x0B	; 11
        step = update;
     632:	3b 00       	.word	0x003b	; ????
     634:	75 6e       	ori	r23, 0xE5	; 229
     636:	73 69       	ori	r23, 0x93	; 147
     638:	67 6e       	ori	r22, 0xE7	; 231
     63a:	65 64       	ori	r22, 0x45	; 69
    }
    else
    {
        PORTB |= (1<<PB0);
     63c:	20 6c       	ori	r18, 0xC0	; 192
        step = -update;
     63e:	6f 6e       	ori	r22, 0xEF	; 239
     640:	67 20       	and	r6, r7
     642:	6c 6f       	ori	r22, 0xFC	; 252
     644:	6e 67       	ori	r22, 0x7E	; 126
     646:	20 5f       	subi	r18, 0xF0	; 240
     648:	41 63       	ori	r20, 0x31	; 49
     64a:	63 75       	andi	r22, 0x53	; 83
     64c:	6d 3a       	cpi	r22, 0xAD	; 173
    }
}

void huisVerlichting( bool aan)
{
    if (aan)
     64e:	74 28       	or	r7, r4
     650:	30 2c       	mov	r3, r0
    {
        PORTC &= ~(1<<PC4);
        huisDecimation = 0;
    }
    else
        PORTC |= (1<<PC4);
     652:	33 36       	cpi	r19, 0x63	; 99
     654:	29 3d       	cpi	r18, 0xD9	; 217

void huisVerlichting( bool aan)
{
    if (aan)
    {
        PORTC &= ~(1<<PC4);
     656:	72 28       	or	r7, r2
        huisDecimation = 0;
     658:	30 2c       	mov	r3, r0
     65a:	31 29       	or	r19, r1
     65c:	3b 38       	cpi	r19, 0x8B	; 139
     65e:	3b 30       	cpi	r19, 0x0B	; 11
     660:	3b 00       	.word	0x003b	; ????
     662:	5f 53       	subi	r21, 0x3F	; 63
     664:	61 74       	andi	r22, 0x41	; 65
     666:	20 73       	andi	r18, 0x30	; 48
     668:	68 6f       	ori	r22, 0xF8	; 248
     66a:	72 74       	andi	r23, 0x42	; 66
     66c:	20 5f       	subi	r18, 0xF0	; 240
     66e:	41 63       	ori	r20, 0x31	; 49
     670:	63 75       	andi	r22, 0x53	; 83
     672:	6d 3a       	cpi	r22, 0xAD	; 173
     674:	74 28       	or	r7, r4
     676:	30 2c       	mov	r3, r0
     678:	33 37       	cpi	r19, 0x73	; 115
     67a:	29 3d       	cpi	r18, 0xD9	; 217
     67c:	72 28       	or	r7, r2
     67e:	30 2c       	mov	r3, r0
     680:	31 29       	or	r19, r1
     682:	3b 32       	cpi	r19, 0x2B	; 43
     684:	3b 30       	cpi	r19, 0x0B	; 11
     686:	3b 00       	.word	0x003b	; ????
     688:	5f 53       	subi	r21, 0x3F	; 63
     68a:	61 74       	andi	r22, 0x41	; 65
     68c:	20 5f       	subi	r18, 0xF0	; 240
     68e:	41 63       	ori	r20, 0x31	; 49
     690:	63 75       	andi	r22, 0x53	; 83
     692:	6d 3a       	cpi	r22, 0xAD	; 173
     694:	74 28       	or	r7, r4
     696:	30 2c       	mov	r3, r0
     698:	33 38       	cpi	r19, 0x83	; 131
     69a:	29 3d       	cpi	r18, 0xD9	; 217
     69c:	72 28       	or	r7, r2
     69e:	30 2c       	mov	r3, r0
     6a0:	31 29       	or	r19, r1
     6a2:	3b 34       	cpi	r19, 0x4B	; 75
     6a4:	3b 30       	cpi	r19, 0x0B	; 11
     6a6:	3b 00       	.word	0x003b	; ????
     6a8:	5f 53       	subi	r21, 0x3F	; 63
     6aa:	61 74       	andi	r22, 0x41	; 65
     6ac:	20 6c       	ori	r18, 0xC0	; 192
     6ae:	6f 6e       	ori	r22, 0xEF	; 239
     6b0:	67 20       	and	r6, r7
     6b2:	5f 41       	sbci	r21, 0x1F	; 31
     6b4:	63 63       	ori	r22, 0x33	; 51
     6b6:	75 6d       	ori	r23, 0xD5	; 213
     6b8:	3a 74       	andi	r19, 0x4A	; 74
     6ba:	28 30       	cpi	r18, 0x08	; 8
     6bc:	2c 33       	cpi	r18, 0x3C	; 60
     6be:	39 29       	or	r19, r9
     6c0:	3d 72       	andi	r19, 0x2D	; 45
     6c2:	28 30       	cpi	r18, 0x08	; 8
     6c4:	2c 31       	cpi	r18, 0x1C	; 28
     6c6:	29 3b       	cpi	r18, 0xB9	; 185
     6c8:	38 3b       	cpi	r19, 0xB8	; 184
     6ca:	30 3b       	cpi	r19, 0xB0	; 176
     6cc:	00 5f       	subi	r16, 0xF0	; 240
     6ce:	53 61       	ori	r21, 0x13	; 19
     6d0:	74 20       	and	r7, r4
     6d2:	6c 6f       	ori	r22, 0xFC	; 252
     6d4:	6e 67       	ori	r22, 0x7E	; 126
     6d6:	20 6c       	ori	r18, 0xC0	; 192
     6d8:	6f 6e       	ori	r22, 0xEF	; 239
     6da:	67 20       	and	r6, r7
     6dc:	5f 41       	sbci	r21, 0x1F	; 31
     6de:	63 63       	ori	r22, 0x33	; 51
     6e0:	75 6d       	ori	r23, 0xD5	; 213
     6e2:	3a 74       	andi	r19, 0x4A	; 74
     6e4:	28 30       	cpi	r18, 0x08	; 8
     6e6:	2c 34       	cpi	r18, 0x4C	; 76
     6e8:	30 29       	or	r19, r0
     6ea:	3d 72       	andi	r19, 0x2D	; 45
     6ec:	28 30       	cpi	r18, 0x08	; 8
     6ee:	2c 31       	cpi	r18, 0x1C	; 28
     6f0:	29 3b       	cpi	r18, 0xB9	; 185
     6f2:	38 3b       	cpi	r19, 0xB8	; 184
     6f4:	30 3b       	cpi	r19, 0xB0	; 176
     6f6:	00 5f       	subi	r16, 0xF0	; 240
     6f8:	53 61       	ori	r21, 0x13	; 19
     6fa:	74 20       	and	r7, r4
     6fc:	75 6e       	ori	r23, 0xE5	; 229
     6fe:	73 69       	ori	r23, 0x93	; 147
     700:	67 6e       	ori	r22, 0xE7	; 231
     702:	65 64       	ori	r22, 0x45	; 69
     704:	20 73       	andi	r18, 0x30	; 48
     706:	68 6f       	ori	r22, 0xF8	; 248
     708:	72 74       	andi	r23, 0x42	; 66
     70a:	20 5f       	subi	r18, 0xF0	; 240
     70c:	41 63       	ori	r20, 0x31	; 49
     70e:	63 75       	andi	r22, 0x53	; 83
     710:	6d 3a       	cpi	r22, 0xAD	; 173
     712:	74 28       	or	r7, r4
     714:	30 2c       	mov	r3, r0
     716:	34 31       	cpi	r19, 0x14	; 20
     718:	29 3d       	cpi	r18, 0xD9	; 217
     71a:	72 28       	or	r7, r2
     71c:	30 2c       	mov	r3, r0
     71e:	31 29       	or	r19, r1
     720:	3b 32       	cpi	r19, 0x2B	; 43
     722:	3b 30       	cpi	r19, 0x0B	; 11
     724:	3b 00       	.word	0x003b	; ????
     726:	5f 53       	subi	r21, 0x3F	; 63
     728:	61 74       	andi	r22, 0x41	; 65
     72a:	20 75       	andi	r18, 0x50	; 80
     72c:	6e 73       	andi	r22, 0x3E	; 62
     72e:	69 67       	ori	r22, 0x79	; 121
     730:	6e 65       	ori	r22, 0x5E	; 94
     732:	64 20       	and	r6, r4
     734:	5f 41       	sbci	r21, 0x1F	; 31
     736:	63 63       	ori	r22, 0x33	; 51
     738:	75 6d       	ori	r23, 0xD5	; 213
     73a:	3a 74       	andi	r19, 0x4A	; 74
     73c:	28 30       	cpi	r18, 0x08	; 8
     73e:	2c 34       	cpi	r18, 0x4C	; 76
     740:	32 29       	or	r19, r2
     742:	3d 72       	andi	r19, 0x2D	; 45
     744:	28 30       	cpi	r18, 0x08	; 8
     746:	2c 31       	cpi	r18, 0x1C	; 28
     748:	29 3b       	cpi	r18, 0xB9	; 185
     74a:	34 3b       	cpi	r19, 0xB4	; 180
     74c:	30 3b       	cpi	r19, 0xB0	; 176
     74e:	00 5f       	subi	r16, 0xF0	; 240
     750:	53 61       	ori	r21, 0x13	; 19
     752:	74 20       	and	r7, r4
     754:	75 6e       	ori	r23, 0xE5	; 229
     756:	73 69       	ori	r23, 0x93	; 147
     758:	67 6e       	ori	r22, 0xE7	; 231
     75a:	65 64       	ori	r22, 0x45	; 69
     75c:	20 6c       	ori	r18, 0xC0	; 192
     75e:	6f 6e       	ori	r22, 0xEF	; 239
     760:	67 20       	and	r6, r7
     762:	5f 41       	sbci	r21, 0x1F	; 31
     764:	63 63       	ori	r22, 0x33	; 51
     766:	75 6d       	ori	r23, 0xD5	; 213
     768:	3a 74       	andi	r19, 0x4A	; 74
     76a:	28 30       	cpi	r18, 0x08	; 8
     76c:	2c 34       	cpi	r18, 0x4C	; 76
     76e:	33 29       	or	r19, r3
     770:	3d 72       	andi	r19, 0x2D	; 45
     772:	28 30       	cpi	r18, 0x08	; 8
     774:	2c 31       	cpi	r18, 0x1C	; 28
     776:	29 3b       	cpi	r18, 0xB9	; 185
     778:	38 3b       	cpi	r19, 0xB8	; 184
     77a:	30 3b       	cpi	r19, 0xB0	; 176
     77c:	00 5f       	subi	r16, 0xF0	; 240
     77e:	53 61       	ori	r21, 0x13	; 19
     780:	74 20       	and	r7, r4
     782:	75 6e       	ori	r23, 0xE5	; 229
     784:	73 69       	ori	r23, 0x93	; 147
     786:	67 6e       	ori	r22, 0xE7	; 231
     788:	65 64       	ori	r22, 0x45	; 69
     78a:	20 6c       	ori	r18, 0xC0	; 192
     78c:	6f 6e       	ori	r22, 0xEF	; 239
     78e:	67 20       	and	r6, r7
     790:	6c 6f       	ori	r22, 0xFC	; 252
     792:	6e 67       	ori	r22, 0x7E	; 126
     794:	20 5f       	subi	r18, 0xF0	; 240
     796:	41 63       	ori	r20, 0x31	; 49
     798:	63 75       	andi	r22, 0x53	; 83
     79a:	6d 3a       	cpi	r22, 0xAD	; 173
     79c:	74 28       	or	r7, r4
     79e:	30 2c       	mov	r3, r0
     7a0:	34 34       	cpi	r19, 0x44	; 68
     7a2:	29 3d       	cpi	r18, 0xD9	; 217
     7a4:	72 28       	or	r7, r2
     7a6:	30 2c       	mov	r3, r0
     7a8:	31 29       	or	r19, r1
     7aa:	3b 38       	cpi	r19, 0x8B	; 139
     7ac:	3b 30       	cpi	r19, 0x0B	; 11
     7ae:	3b 00       	.word	0x003b	; ????
     7b0:	76 6f       	ori	r23, 0xF6	; 246
     7b2:	69 64       	ori	r22, 0x49	; 73
     7b4:	3a 74       	andi	r19, 0x4A	; 74
     7b6:	28 30       	cpi	r18, 0x08	; 8
     7b8:	2c 34       	cpi	r18, 0x4C	; 76
     7ba:	35 29       	or	r19, r5
     7bc:	3d 28       	or	r3, r13
     7be:	30 2c       	mov	r3, r0
     7c0:	34 35       	cpi	r19, 0x54	; 84
     7c2:	29 00       	.word	0x0029	; ????
     7c4:	2f 75       	andi	r18, 0x5F	; 95
     7c6:	73 72       	andi	r23, 0x23	; 35
     7c8:	2f 6c       	ori	r18, 0xCF	; 207
     7ca:	69 62       	ori	r22, 0x29	; 41
     7cc:	2f 61       	ori	r18, 0x1F	; 31
     7ce:	76 72       	andi	r23, 0x26	; 38
     7d0:	2f 69       	ori	r18, 0x9F	; 159
     7d2:	6e 63       	ori	r22, 0x3E	; 62
     7d4:	6c 75       	andi	r22, 0x5C	; 92
     7d6:	64 65       	ori	r22, 0x54	; 84
     7d8:	2f 61       	ori	r18, 0x1F	; 31
     7da:	76 72       	andi	r23, 0x26	; 38
     7dc:	2f 69       	ori	r18, 0x9F	; 159
     7de:	6f 2e       	mov	r6, r31
     7e0:	68 00       	.word	0x0068	; ????
     7e2:	2f 75       	andi	r18, 0x5F	; 95
     7e4:	73 72       	andi	r23, 0x23	; 35
     7e6:	2f 6c       	ori	r18, 0xCF	; 207
     7e8:	69 62       	ori	r22, 0x29	; 41
     7ea:	2f 61       	ori	r18, 0x1F	; 31
     7ec:	76 72       	andi	r23, 0x26	; 38
     7ee:	2f 69       	ori	r18, 0x9F	; 159
     7f0:	6e 63       	ori	r22, 0x3E	; 62
     7f2:	6c 75       	andi	r22, 0x5C	; 92
     7f4:	64 65       	ori	r22, 0x54	; 84
     7f6:	2f 61       	ori	r18, 0x1F	; 31
     7f8:	76 72       	andi	r23, 0x26	; 38
     7fa:	2f 73       	andi	r18, 0x3F	; 63
     7fc:	66 72       	andi	r22, 0x26	; 38
     7fe:	5f 64       	ori	r21, 0x4F	; 79
     800:	65 66       	ori	r22, 0x65	; 101
     802:	73 2e       	mov	r7, r19
     804:	68 00       	.word	0x0068	; ????
     806:	2f 75       	andi	r18, 0x5F	; 95
     808:	73 72       	andi	r23, 0x23	; 35
     80a:	2f 6c       	ori	r18, 0xCF	; 207
     80c:	69 62       	ori	r22, 0x29	; 41
     80e:	2f 61       	ori	r18, 0x1F	; 31
     810:	76 72       	andi	r23, 0x26	; 38
     812:	2f 69       	ori	r18, 0x9F	; 159
     814:	6e 63       	ori	r22, 0x3E	; 62
     816:	6c 75       	andi	r22, 0x5C	; 92
     818:	64 65       	ori	r22, 0x54	; 84
     81a:	2f 69       	ori	r18, 0x9F	; 159
     81c:	6e 74       	andi	r22, 0x4E	; 78
     81e:	74 79       	andi	r23, 0x94	; 148
     820:	70 65       	ori	r23, 0x50	; 80
     822:	73 2e       	mov	r7, r19
     824:	68 00       	.word	0x0068	; ????
     826:	2f 75       	andi	r18, 0x5F	; 95
     828:	73 72       	andi	r23, 0x23	; 35
     82a:	2f 6c       	ori	r18, 0xCF	; 207
     82c:	69 62       	ori	r22, 0x29	; 41
     82e:	2f 67       	ori	r18, 0x7F	; 127
     830:	63 63       	ori	r22, 0x33	; 51
     832:	2f 61       	ori	r18, 0x1F	; 31
     834:	76 72       	andi	r23, 0x26	; 38
     836:	2f 34       	cpi	r18, 0x4F	; 79
     838:	2e 38       	cpi	r18, 0x8E	; 142
     83a:	2e 32       	cpi	r18, 0x2E	; 46
     83c:	2f 69       	ori	r18, 0x9F	; 159
     83e:	6e 63       	ori	r22, 0x3E	; 62
     840:	6c 75       	andi	r22, 0x5C	; 92
     842:	64 65       	ori	r22, 0x54	; 84
     844:	2f 73       	andi	r18, 0x3F	; 63
     846:	74 64       	ori	r23, 0x44	; 68
     848:	69 6e       	ori	r22, 0xE9	; 233
     84a:	74 2e       	mov	r7, r20
     84c:	68 00       	.word	0x0068	; ????
     84e:	2f 75       	andi	r18, 0x5F	; 95
     850:	73 72       	andi	r23, 0x23	; 35
     852:	2f 6c       	ori	r18, 0xCF	; 207
     854:	69 62       	ori	r22, 0x29	; 41
     856:	2f 61       	ori	r18, 0x1F	; 31
     858:	76 72       	andi	r23, 0x26	; 38
     85a:	2f 69       	ori	r18, 0x9F	; 159
     85c:	6e 63       	ori	r22, 0x3E	; 62
     85e:	6c 75       	andi	r22, 0x5C	; 92
     860:	64 65       	ori	r22, 0x54	; 84
     862:	2f 73       	andi	r18, 0x3F	; 63
     864:	74 64       	ori	r23, 0x44	; 68
     866:	69 6e       	ori	r22, 0xE9	; 233
     868:	74 2e       	mov	r7, r20
     86a:	68 00       	.word	0x0068	; ????
     86c:	69 6e       	ori	r22, 0xE9	; 233
     86e:	74 38       	cpi	r23, 0x84	; 132
     870:	5f 74       	andi	r21, 0x4F	; 79
     872:	3a 74       	andi	r19, 0x4A	; 74
     874:	28 35       	cpi	r18, 0x58	; 88
     876:	2c 31       	cpi	r18, 0x1C	; 28
     878:	29 3d       	cpi	r18, 0xD9	; 217
     87a:	28 30       	cpi	r18, 0x08	; 8
     87c:	2c 31       	cpi	r18, 0x1C	; 28
     87e:	30 29       	or	r19, r0
     880:	00 75       	andi	r16, 0x50	; 80
     882:	69 6e       	ori	r22, 0xE9	; 233
     884:	74 38       	cpi	r23, 0x84	; 132
     886:	5f 74       	andi	r21, 0x4F	; 79
     888:	3a 74       	andi	r19, 0x4A	; 74
     88a:	28 35       	cpi	r18, 0x58	; 88
     88c:	2c 32       	cpi	r18, 0x2C	; 44
     88e:	29 3d       	cpi	r18, 0xD9	; 217
     890:	28 30       	cpi	r18, 0x08	; 8
     892:	2c 31       	cpi	r18, 0x1C	; 28
     894:	31 29       	or	r19, r1
     896:	00 69       	ori	r16, 0x90	; 144
     898:	6e 74       	andi	r22, 0x4E	; 78
     89a:	31 36       	cpi	r19, 0x61	; 97
     89c:	5f 74       	andi	r21, 0x4F	; 79
     89e:	3a 74       	andi	r19, 0x4A	; 74
     8a0:	28 35       	cpi	r18, 0x58	; 88
     8a2:	2c 33       	cpi	r18, 0x3C	; 60
     8a4:	29 3d       	cpi	r18, 0xD9	; 217
     8a6:	28 30       	cpi	r18, 0x08	; 8
     8a8:	2c 31       	cpi	r18, 0x1C	; 28
     8aa:	29 00       	.word	0x0029	; ????
     8ac:	75 69       	ori	r23, 0x95	; 149
     8ae:	6e 74       	andi	r22, 0x4E	; 78
     8b0:	31 36       	cpi	r19, 0x61	; 97
     8b2:	5f 74       	andi	r21, 0x4F	; 79
     8b4:	3a 74       	andi	r19, 0x4A	; 74
     8b6:	28 35       	cpi	r18, 0x58	; 88
     8b8:	2c 34       	cpi	r18, 0x4C	; 76
     8ba:	29 3d       	cpi	r18, 0xD9	; 217
     8bc:	28 30       	cpi	r18, 0x08	; 8
     8be:	2c 34       	cpi	r18, 0x4C	; 76
     8c0:	29 00       	.word	0x0029	; ????
     8c2:	69 6e       	ori	r22, 0xE9	; 233
     8c4:	74 33       	cpi	r23, 0x34	; 52
     8c6:	32 5f       	subi	r19, 0xF2	; 242
     8c8:	74 3a       	cpi	r23, 0xA4	; 164
     8ca:	74 28       	or	r7, r4
     8cc:	35 2c       	mov	r3, r5
     8ce:	35 29       	or	r19, r5
     8d0:	3d 28       	or	r3, r13
     8d2:	30 2c       	mov	r3, r0
     8d4:	33 29       	or	r19, r3
     8d6:	00 75       	andi	r16, 0x50	; 80
     8d8:	69 6e       	ori	r22, 0xE9	; 233
     8da:	74 33       	cpi	r23, 0x34	; 52
     8dc:	32 5f       	subi	r19, 0xF2	; 242
     8de:	74 3a       	cpi	r23, 0xA4	; 164
     8e0:	74 28       	or	r7, r4
     8e2:	35 2c       	mov	r3, r5
     8e4:	36 29       	or	r19, r6
     8e6:	3d 28       	or	r3, r13
     8e8:	30 2c       	mov	r3, r0
     8ea:	35 29       	or	r19, r5
     8ec:	00 69       	ori	r16, 0x90	; 144
     8ee:	6e 74       	andi	r22, 0x4E	; 78
     8f0:	36 34       	cpi	r19, 0x46	; 70
     8f2:	5f 74       	andi	r21, 0x4F	; 79
     8f4:	3a 74       	andi	r19, 0x4A	; 74
     8f6:	28 35       	cpi	r18, 0x58	; 88
     8f8:	2c 37       	cpi	r18, 0x7C	; 124
     8fa:	29 3d       	cpi	r18, 0xD9	; 217
     8fc:	28 30       	cpi	r18, 0x08	; 8
     8fe:	2c 36       	cpi	r18, 0x6C	; 108
     900:	29 00       	.word	0x0029	; ????
     902:	75 69       	ori	r23, 0x95	; 149
     904:	6e 74       	andi	r22, 0x4E	; 78
     906:	36 34       	cpi	r19, 0x46	; 70
     908:	5f 74       	andi	r21, 0x4F	; 79
     90a:	3a 74       	andi	r19, 0x4A	; 74
     90c:	28 35       	cpi	r18, 0x58	; 88
     90e:	2c 38       	cpi	r18, 0x8C	; 140
     910:	29 3d       	cpi	r18, 0xD9	; 217
     912:	28 30       	cpi	r18, 0x08	; 8
     914:	2c 37       	cpi	r18, 0x7C	; 124
     916:	29 00       	.word	0x0029	; ????
     918:	69 6e       	ori	r22, 0xE9	; 233
     91a:	74 70       	andi	r23, 0x04	; 4
     91c:	74 72       	andi	r23, 0x24	; 36
     91e:	5f 74       	andi	r21, 0x4F	; 79
     920:	3a 74       	andi	r19, 0x4A	; 74
     922:	28 35       	cpi	r18, 0x58	; 88
     924:	2c 39       	cpi	r18, 0x9C	; 156
     926:	29 3d       	cpi	r18, 0xD9	; 217
     928:	28 35       	cpi	r18, 0x58	; 88
     92a:	2c 33       	cpi	r18, 0x3C	; 60
     92c:	29 00       	.word	0x0029	; ????
     92e:	75 69       	ori	r23, 0x95	; 149
     930:	6e 74       	andi	r22, 0x4E	; 78
     932:	70 74       	andi	r23, 0x40	; 64
     934:	72 5f       	subi	r23, 0xF2	; 242
     936:	74 3a       	cpi	r23, 0xA4	; 164
     938:	74 28       	or	r7, r4
     93a:	35 2c       	mov	r3, r5
     93c:	31 30       	cpi	r19, 0x01	; 1
     93e:	29 3d       	cpi	r18, 0xD9	; 217
     940:	28 35       	cpi	r18, 0x58	; 88
     942:	2c 34       	cpi	r18, 0x4C	; 76
     944:	29 00       	.word	0x0029	; ????
     946:	69 6e       	ori	r22, 0xE9	; 233
     948:	74 5f       	subi	r23, 0xF4	; 244
     94a:	6c 65       	ori	r22, 0x5C	; 92
     94c:	61 73       	andi	r22, 0x31	; 49
     94e:	74 38       	cpi	r23, 0x84	; 132
     950:	5f 74       	andi	r21, 0x4F	; 79
     952:	3a 74       	andi	r19, 0x4A	; 74
     954:	28 35       	cpi	r18, 0x58	; 88
     956:	2c 31       	cpi	r18, 0x1C	; 28
     958:	31 29       	or	r19, r1
     95a:	3d 28       	or	r3, r13
     95c:	35 2c       	mov	r3, r5
     95e:	31 29       	or	r19, r1
     960:	00 75       	andi	r16, 0x50	; 80
     962:	69 6e       	ori	r22, 0xE9	; 233
     964:	74 5f       	subi	r23, 0xF4	; 244
     966:	6c 65       	ori	r22, 0x5C	; 92
     968:	61 73       	andi	r22, 0x31	; 49
     96a:	74 38       	cpi	r23, 0x84	; 132
     96c:	5f 74       	andi	r21, 0x4F	; 79
     96e:	3a 74       	andi	r19, 0x4A	; 74
     970:	28 35       	cpi	r18, 0x58	; 88
     972:	2c 31       	cpi	r18, 0x1C	; 28
     974:	32 29       	or	r19, r2
     976:	3d 28       	or	r3, r13
     978:	35 2c       	mov	r3, r5
     97a:	32 29       	or	r19, r2
     97c:	00 69       	ori	r16, 0x90	; 144
     97e:	6e 74       	andi	r22, 0x4E	; 78
     980:	5f 6c       	ori	r21, 0xCF	; 207
     982:	65 61       	ori	r22, 0x15	; 21
     984:	73 74       	andi	r23, 0x43	; 67
     986:	31 36       	cpi	r19, 0x61	; 97
     988:	5f 74       	andi	r21, 0x4F	; 79
     98a:	3a 74       	andi	r19, 0x4A	; 74
     98c:	28 35       	cpi	r18, 0x58	; 88
     98e:	2c 31       	cpi	r18, 0x1C	; 28
     990:	33 29       	or	r19, r3
     992:	3d 28       	or	r3, r13
     994:	35 2c       	mov	r3, r5
     996:	33 29       	or	r19, r3
     998:	00 75       	andi	r16, 0x50	; 80
     99a:	69 6e       	ori	r22, 0xE9	; 233
     99c:	74 5f       	subi	r23, 0xF4	; 244
     99e:	6c 65       	ori	r22, 0x5C	; 92
     9a0:	61 73       	andi	r22, 0x31	; 49
     9a2:	74 31       	cpi	r23, 0x14	; 20
     9a4:	36 5f       	subi	r19, 0xF6	; 246
     9a6:	74 3a       	cpi	r23, 0xA4	; 164
     9a8:	74 28       	or	r7, r4
     9aa:	35 2c       	mov	r3, r5
     9ac:	31 34       	cpi	r19, 0x41	; 65
     9ae:	29 3d       	cpi	r18, 0xD9	; 217
     9b0:	28 35       	cpi	r18, 0x58	; 88
     9b2:	2c 34       	cpi	r18, 0x4C	; 76
     9b4:	29 00       	.word	0x0029	; ????
     9b6:	69 6e       	ori	r22, 0xE9	; 233
     9b8:	74 5f       	subi	r23, 0xF4	; 244
     9ba:	6c 65       	ori	r22, 0x5C	; 92
     9bc:	61 73       	andi	r22, 0x31	; 49
     9be:	74 33       	cpi	r23, 0x34	; 52
     9c0:	32 5f       	subi	r19, 0xF2	; 242
     9c2:	74 3a       	cpi	r23, 0xA4	; 164
     9c4:	74 28       	or	r7, r4
     9c6:	35 2c       	mov	r3, r5
     9c8:	31 35       	cpi	r19, 0x51	; 81
     9ca:	29 3d       	cpi	r18, 0xD9	; 217
     9cc:	28 35       	cpi	r18, 0x58	; 88
     9ce:	2c 35       	cpi	r18, 0x5C	; 92
     9d0:	29 00       	.word	0x0029	; ????
     9d2:	75 69       	ori	r23, 0x95	; 149
     9d4:	6e 74       	andi	r22, 0x4E	; 78
     9d6:	5f 6c       	ori	r21, 0xCF	; 207
     9d8:	65 61       	ori	r22, 0x15	; 21
     9da:	73 74       	andi	r23, 0x43	; 67
     9dc:	33 32       	cpi	r19, 0x23	; 35
     9de:	5f 74       	andi	r21, 0x4F	; 79
     9e0:	3a 74       	andi	r19, 0x4A	; 74
     9e2:	28 35       	cpi	r18, 0x58	; 88
     9e4:	2c 31       	cpi	r18, 0x1C	; 28
     9e6:	36 29       	or	r19, r6
     9e8:	3d 28       	or	r3, r13
     9ea:	35 2c       	mov	r3, r5
     9ec:	36 29       	or	r19, r6
     9ee:	00 69       	ori	r16, 0x90	; 144
     9f0:	6e 74       	andi	r22, 0x4E	; 78
     9f2:	5f 6c       	ori	r21, 0xCF	; 207
     9f4:	65 61       	ori	r22, 0x15	; 21
     9f6:	73 74       	andi	r23, 0x43	; 67
     9f8:	36 34       	cpi	r19, 0x46	; 70
     9fa:	5f 74       	andi	r21, 0x4F	; 79
     9fc:	3a 74       	andi	r19, 0x4A	; 74
     9fe:	28 35       	cpi	r18, 0x58	; 88
     a00:	2c 31       	cpi	r18, 0x1C	; 28
     a02:	37 29       	or	r19, r7
     a04:	3d 28       	or	r3, r13
     a06:	35 2c       	mov	r3, r5
     a08:	37 29       	or	r19, r7
     a0a:	00 75       	andi	r16, 0x50	; 80
     a0c:	69 6e       	ori	r22, 0xE9	; 233
     a0e:	74 5f       	subi	r23, 0xF4	; 244
     a10:	6c 65       	ori	r22, 0x5C	; 92
     a12:	61 73       	andi	r22, 0x31	; 49
     a14:	74 36       	cpi	r23, 0x64	; 100
     a16:	34 5f       	subi	r19, 0xF4	; 244
     a18:	74 3a       	cpi	r23, 0xA4	; 164
     a1a:	74 28       	or	r7, r4
     a1c:	35 2c       	mov	r3, r5
     a1e:	31 38       	cpi	r19, 0x81	; 129
     a20:	29 3d       	cpi	r18, 0xD9	; 217
     a22:	28 35       	cpi	r18, 0x58	; 88
     a24:	2c 38       	cpi	r18, 0x8C	; 140
     a26:	29 00       	.word	0x0029	; ????
     a28:	69 6e       	ori	r22, 0xE9	; 233
     a2a:	74 5f       	subi	r23, 0xF4	; 244
     a2c:	66 61       	ori	r22, 0x16	; 22
     a2e:	73 74       	andi	r23, 0x43	; 67
     a30:	38 5f       	subi	r19, 0xF8	; 248
     a32:	74 3a       	cpi	r23, 0xA4	; 164
     a34:	74 28       	or	r7, r4
     a36:	35 2c       	mov	r3, r5
     a38:	31 39       	cpi	r19, 0x91	; 145
     a3a:	29 3d       	cpi	r18, 0xD9	; 217
     a3c:	28 35       	cpi	r18, 0x58	; 88
     a3e:	2c 31       	cpi	r18, 0x1C	; 28
     a40:	29 00       	.word	0x0029	; ????
     a42:	75 69       	ori	r23, 0x95	; 149
     a44:	6e 74       	andi	r22, 0x4E	; 78
     a46:	5f 66       	ori	r21, 0x6F	; 111
     a48:	61 73       	andi	r22, 0x31	; 49
     a4a:	74 38       	cpi	r23, 0x84	; 132
     a4c:	5f 74       	andi	r21, 0x4F	; 79
     a4e:	3a 74       	andi	r19, 0x4A	; 74
     a50:	28 35       	cpi	r18, 0x58	; 88
     a52:	2c 32       	cpi	r18, 0x2C	; 44
     a54:	30 29       	or	r19, r0
     a56:	3d 28       	or	r3, r13
     a58:	35 2c       	mov	r3, r5
     a5a:	32 29       	or	r19, r2
     a5c:	00 69       	ori	r16, 0x90	; 144
     a5e:	6e 74       	andi	r22, 0x4E	; 78
     a60:	5f 66       	ori	r21, 0x6F	; 111
     a62:	61 73       	andi	r22, 0x31	; 49
     a64:	74 31       	cpi	r23, 0x14	; 20
     a66:	36 5f       	subi	r19, 0xF6	; 246
     a68:	74 3a       	cpi	r23, 0xA4	; 164
     a6a:	74 28       	or	r7, r4
     a6c:	35 2c       	mov	r3, r5
     a6e:	32 31       	cpi	r19, 0x12	; 18
     a70:	29 3d       	cpi	r18, 0xD9	; 217
     a72:	28 35       	cpi	r18, 0x58	; 88
     a74:	2c 33       	cpi	r18, 0x3C	; 60
     a76:	29 00       	.word	0x0029	; ????
     a78:	75 69       	ori	r23, 0x95	; 149
     a7a:	6e 74       	andi	r22, 0x4E	; 78
     a7c:	5f 66       	ori	r21, 0x6F	; 111
     a7e:	61 73       	andi	r22, 0x31	; 49
     a80:	74 31       	cpi	r23, 0x14	; 20
     a82:	36 5f       	subi	r19, 0xF6	; 246
     a84:	74 3a       	cpi	r23, 0xA4	; 164
     a86:	74 28       	or	r7, r4
     a88:	35 2c       	mov	r3, r5
     a8a:	32 32       	cpi	r19, 0x22	; 34
     a8c:	29 3d       	cpi	r18, 0xD9	; 217
     a8e:	28 35       	cpi	r18, 0x58	; 88
     a90:	2c 34       	cpi	r18, 0x4C	; 76
     a92:	29 00       	.word	0x0029	; ????
     a94:	69 6e       	ori	r22, 0xE9	; 233
     a96:	74 5f       	subi	r23, 0xF4	; 244
     a98:	66 61       	ori	r22, 0x16	; 22
     a9a:	73 74       	andi	r23, 0x43	; 67
     a9c:	33 32       	cpi	r19, 0x23	; 35
     a9e:	5f 74       	andi	r21, 0x4F	; 79
     aa0:	3a 74       	andi	r19, 0x4A	; 74
     aa2:	28 35       	cpi	r18, 0x58	; 88
     aa4:	2c 32       	cpi	r18, 0x2C	; 44
     aa6:	33 29       	or	r19, r3
     aa8:	3d 28       	or	r3, r13
     aaa:	35 2c       	mov	r3, r5
     aac:	35 29       	or	r19, r5
     aae:	00 75       	andi	r16, 0x50	; 80
     ab0:	69 6e       	ori	r22, 0xE9	; 233
     ab2:	74 5f       	subi	r23, 0xF4	; 244
     ab4:	66 61       	ori	r22, 0x16	; 22
     ab6:	73 74       	andi	r23, 0x43	; 67
     ab8:	33 32       	cpi	r19, 0x23	; 35
     aba:	5f 74       	andi	r21, 0x4F	; 79
     abc:	3a 74       	andi	r19, 0x4A	; 74
     abe:	28 35       	cpi	r18, 0x58	; 88
     ac0:	2c 32       	cpi	r18, 0x2C	; 44
     ac2:	34 29       	or	r19, r4
     ac4:	3d 28       	or	r3, r13
     ac6:	35 2c       	mov	r3, r5
     ac8:	36 29       	or	r19, r6
     aca:	00 69       	ori	r16, 0x90	; 144
     acc:	6e 74       	andi	r22, 0x4E	; 78
     ace:	5f 66       	ori	r21, 0x6F	; 111
     ad0:	61 73       	andi	r22, 0x31	; 49
     ad2:	74 36       	cpi	r23, 0x64	; 100
     ad4:	34 5f       	subi	r19, 0xF4	; 244
     ad6:	74 3a       	cpi	r23, 0xA4	; 164
     ad8:	74 28       	or	r7, r4
     ada:	35 2c       	mov	r3, r5
     adc:	32 35       	cpi	r19, 0x52	; 82
     ade:	29 3d       	cpi	r18, 0xD9	; 217
     ae0:	28 35       	cpi	r18, 0x58	; 88
     ae2:	2c 37       	cpi	r18, 0x7C	; 124
     ae4:	29 00       	.word	0x0029	; ????
     ae6:	75 69       	ori	r23, 0x95	; 149
     ae8:	6e 74       	andi	r22, 0x4E	; 78
     aea:	5f 66       	ori	r21, 0x6F	; 111
     aec:	61 73       	andi	r22, 0x31	; 49
     aee:	74 36       	cpi	r23, 0x64	; 100
     af0:	34 5f       	subi	r19, 0xF4	; 244
     af2:	74 3a       	cpi	r23, 0xA4	; 164
     af4:	74 28       	or	r7, r4
     af6:	35 2c       	mov	r3, r5
     af8:	32 36       	cpi	r19, 0x62	; 98
     afa:	29 3d       	cpi	r18, 0xD9	; 217
     afc:	28 35       	cpi	r18, 0x58	; 88
     afe:	2c 38       	cpi	r18, 0x8C	; 140
     b00:	29 00       	.word	0x0029	; ????
     b02:	69 6e       	ori	r22, 0xE9	; 233
     b04:	74 6d       	ori	r23, 0xD4	; 212
     b06:	61 78       	andi	r22, 0x81	; 129
     b08:	5f 74       	andi	r21, 0x4F	; 79
     b0a:	3a 74       	andi	r19, 0x4A	; 74
     b0c:	28 35       	cpi	r18, 0x58	; 88
     b0e:	2c 32       	cpi	r18, 0x2C	; 44
     b10:	37 29       	or	r19, r7
     b12:	3d 28       	or	r3, r13
     b14:	35 2c       	mov	r3, r5
     b16:	37 29       	or	r19, r7
     b18:	00 75       	andi	r16, 0x50	; 80
     b1a:	69 6e       	ori	r22, 0xE9	; 233
     b1c:	74 6d       	ori	r23, 0xD4	; 212
     b1e:	61 78       	andi	r22, 0x81	; 129
     b20:	5f 74       	andi	r21, 0x4F	; 79
     b22:	3a 74       	andi	r19, 0x4A	; 74
     b24:	28 35       	cpi	r18, 0x58	; 88
     b26:	2c 32       	cpi	r18, 0x2C	; 44
     b28:	38 29       	or	r19, r8
     b2a:	3d 28       	or	r3, r13
     b2c:	35 2c       	mov	r3, r5
     b2e:	38 29       	or	r19, r8
     b30:	00 69       	ori	r16, 0x90	; 144
     b32:	6e 74       	andi	r22, 0x4E	; 78
     b34:	5f 66       	ori	r21, 0x6F	; 111
     b36:	61 72       	andi	r22, 0x21	; 33
     b38:	70 74       	andi	r23, 0x40	; 64
     b3a:	72 5f       	subi	r23, 0xF2	; 242
     b3c:	74 3a       	cpi	r23, 0xA4	; 164
     b3e:	74 28       	or	r7, r4
     b40:	33 2c       	mov	r3, r3
     b42:	31 29       	or	r19, r1
     b44:	3d 28       	or	r3, r13
     b46:	35 2c       	mov	r3, r5
     b48:	35 29       	or	r19, r5
     b4a:	00 75       	andi	r16, 0x50	; 80
     b4c:	69 6e       	ori	r22, 0xE9	; 233
     b4e:	74 5f       	subi	r23, 0xF4	; 244
     b50:	66 61       	ori	r22, 0x16	; 22
     b52:	72 70       	andi	r23, 0x02	; 2
     b54:	74 72       	andi	r23, 0x24	; 36
     b56:	5f 74       	andi	r21, 0x4F	; 79
     b58:	3a 74       	andi	r19, 0x4A	; 74
     b5a:	28 33       	cpi	r18, 0x38	; 56
     b5c:	2c 32       	cpi	r18, 0x2C	; 44
     b5e:	29 3d       	cpi	r18, 0xD9	; 217
     b60:	28 35       	cpi	r18, 0x58	; 88
     b62:	2c 36       	cpi	r18, 0x6C	; 108
     b64:	29 00       	.word	0x0029	; ????
     b66:	2f 75       	andi	r18, 0x5F	; 95
     b68:	73 72       	andi	r23, 0x23	; 35
     b6a:	2f 6c       	ori	r18, 0xCF	; 207
     b6c:	69 62       	ori	r22, 0x29	; 41
     b6e:	2f 61       	ori	r18, 0x1F	; 31
     b70:	76 72       	andi	r23, 0x26	; 38
     b72:	2f 69       	ori	r18, 0x9F	; 159
     b74:	6e 63       	ori	r22, 0x3E	; 62
     b76:	6c 75       	andi	r22, 0x5C	; 92
     b78:	64 65       	ori	r22, 0x54	; 84
     b7a:	2f 61       	ori	r18, 0x1F	; 31
     b7c:	76 72       	andi	r23, 0x26	; 38
     b7e:	2f 66       	ori	r18, 0x6F	; 111
     b80:	75 73       	andi	r23, 0x35	; 53
     b82:	65 2e       	mov	r6, r21
     b84:	68 00       	.word	0x0068	; ????
     b86:	5f 5f       	subi	r21, 0xFF	; 255
     b88:	66 75       	andi	r22, 0x56	; 86
     b8a:	73 65       	ori	r23, 0x53	; 83
     b8c:	5f 74       	andi	r21, 0x4F	; 79
     b8e:	3a 74       	andi	r19, 0x4A	; 74
     b90:	28 36       	cpi	r18, 0x68	; 104
     b92:	2c 31       	cpi	r18, 0x1C	; 28
     b94:	29 3d       	cpi	r18, 0xD9	; 217
     b96:	28 36       	cpi	r18, 0x68	; 104
     b98:	2c 32       	cpi	r18, 0x2C	; 44
     b9a:	29 3d       	cpi	r18, 0xD9	; 217
     b9c:	73 32       	cpi	r23, 0x23	; 35
     b9e:	6c 6f       	ori	r22, 0xFC	; 252
     ba0:	77 3a       	cpi	r23, 0xA7	; 167
     ba2:	28 30       	cpi	r18, 0x08	; 8
     ba4:	2c 31       	cpi	r18, 0x1C	; 28
     ba6:	31 29       	or	r19, r1
     ba8:	2c 30       	cpi	r18, 0x0C	; 12
     baa:	2c 38       	cpi	r18, 0x8C	; 140
     bac:	3b 68       	ori	r19, 0x8B	; 139
     bae:	69 67       	ori	r22, 0x79	; 121
     bb0:	68 3a       	cpi	r22, 0xA8	; 168
     bb2:	28 30       	cpi	r18, 0x08	; 8
     bb4:	2c 31       	cpi	r18, 0x1C	; 28
     bb6:	31 29       	or	r19, r1
     bb8:	2c 38       	cpi	r18, 0x8C	; 140
     bba:	2c 38       	cpi	r18, 0x8C	; 140
     bbc:	3b 3b       	cpi	r19, 0xBB	; 187
     bbe:	00 2f       	mov	r16, r16
     bc0:	75 73       	andi	r23, 0x35	; 53
     bc2:	72 2f       	mov	r23, r18
     bc4:	6c 69       	ori	r22, 0x9C	; 156
     bc6:	62 2f       	mov	r22, r18
     bc8:	61 76       	andi	r22, 0x61	; 97
     bca:	72 2f       	mov	r23, r18
     bcc:	69 6e       	ori	r22, 0xE9	; 233
     bce:	63 6c       	ori	r22, 0xC3	; 195
     bd0:	75 64       	ori	r23, 0x45	; 69
     bd2:	65 2f       	mov	r22, r21
     bd4:	61 76       	andi	r22, 0x61	; 97
     bd6:	72 2f       	mov	r23, r18
     bd8:	65 65       	ori	r22, 0x55	; 85
     bda:	70 72       	andi	r23, 0x20	; 32
     bdc:	6f 6d       	ori	r22, 0xDF	; 223
     bde:	2e 68       	ori	r18, 0x8E	; 142
     be0:	00 2f       	mov	r16, r16
     be2:	75 73       	andi	r23, 0x35	; 53
     be4:	72 2f       	mov	r23, r18
     be6:	6c 69       	ori	r22, 0x9C	; 156
     be8:	62 2f       	mov	r22, r18
     bea:	67 63       	ori	r22, 0x37	; 55
     bec:	63 2f       	mov	r22, r19
     bee:	61 76       	andi	r22, 0x61	; 97
     bf0:	72 2f       	mov	r23, r18
     bf2:	34 2e       	mov	r3, r20
     bf4:	38 2e       	mov	r3, r24
     bf6:	32 2f       	mov	r19, r18
     bf8:	69 6e       	ori	r22, 0xE9	; 233
     bfa:	63 6c       	ori	r22, 0xC3	; 195
     bfc:	75 64       	ori	r23, 0x45	; 69
     bfe:	65 2f       	mov	r22, r21
     c00:	73 74       	andi	r23, 0x43	; 67
     c02:	64 64       	ori	r22, 0x44	; 68
     c04:	65 66       	ori	r22, 0x65	; 101
     c06:	2e 68       	ori	r18, 0x8E	; 142
     c08:	00 70       	andi	r16, 0x00	; 0
     c0a:	74 72       	andi	r23, 0x24	; 36
     c0c:	64 69       	ori	r22, 0x94	; 148
     c0e:	66 66       	ori	r22, 0x66	; 102
     c10:	5f 74       	andi	r21, 0x4F	; 79
     c12:	3a 74       	andi	r19, 0x4A	; 74
     c14:	28 38       	cpi	r18, 0x88	; 136
     c16:	2c 31       	cpi	r18, 0x1C	; 28
     c18:	29 3d       	cpi	r18, 0xD9	; 217
     c1a:	28 30       	cpi	r18, 0x08	; 8
     c1c:	2c 31       	cpi	r18, 0x1C	; 28
     c1e:	29 00       	.word	0x0029	; ????
     c20:	73 69       	ori	r23, 0x93	; 147
     c22:	7a 65       	ori	r23, 0x5A	; 90
     c24:	5f 74       	andi	r21, 0x4F	; 79
     c26:	3a 74       	andi	r19, 0x4A	; 74
     c28:	28 38       	cpi	r18, 0x88	; 136
     c2a:	2c 32       	cpi	r18, 0x2C	; 44
     c2c:	29 3d       	cpi	r18, 0xD9	; 217
     c2e:	28 30       	cpi	r18, 0x08	; 8
     c30:	2c 34       	cpi	r18, 0x4C	; 76
     c32:	29 00       	.word	0x0029	; ????
     c34:	77 63       	ori	r23, 0x37	; 55
     c36:	68 61       	ori	r22, 0x18	; 24
     c38:	72 5f       	subi	r23, 0xF2	; 242
     c3a:	74 3a       	cpi	r23, 0xA4	; 164
     c3c:	74 28       	or	r7, r4
     c3e:	38 2c       	mov	r3, r8
     c40:	33 29       	or	r19, r3
     c42:	3d 28       	or	r3, r13
     c44:	30 2c       	mov	r3, r0
     c46:	31 29       	or	r19, r1
     c48:	00 48       	sbci	r16, 0x80	; 128
     c4a:	6f 6d       	ori	r22, 0xDF	; 223
     c4c:	69 6e       	ori	r22, 0xE9	; 233
     c4e:	67 3a       	cpi	r22, 0xA7	; 167
     c50:	46 28       	or	r4, r6
     c52:	30 2c       	mov	r3, r0
     c54:	34 35       	cpi	r19, 0x54	; 84
     c56:	29 00       	.word	0x0029	; ????
     c58:	53 74       	andi	r21, 0x43	; 67
     c5a:	65 70       	andi	r22, 0x05	; 5
     c5c:	43 6f       	ori	r20, 0xF3	; 243
     c5e:	6e 74       	andi	r22, 0x4E	; 78
     c60:	72 6f       	ori	r23, 0xF2	; 242
     c62:	6c 3a       	cpi	r22, 0xAC	; 172
     c64:	46 28       	or	r4, r6
     c66:	30 2c       	mov	r3, r0
     c68:	34 35       	cpi	r19, 0x54	; 84
     c6a:	29 00       	.word	0x0029	; ????
     c6c:	64 65       	ori	r22, 0x54	; 84
     c6e:	63 69       	ori	r22, 0x93	; 147
     c70:	6d 61       	ori	r22, 0x1D	; 29
     c72:	74 65       	ori	r23, 0x54	; 84
     c74:	3a 56       	subi	r19, 0x6A	; 106
     c76:	28 35       	cpi	r18, 0x58	; 88
     c78:	2c 32       	cpi	r18, 0x2C	; 44
     c7a:	29 00       	.word	0x0029	; ????
     c7c:	64 72       	andi	r22, 0x24	; 36
     c7e:	65 6d       	ori	r22, 0xD5	; 213
     c80:	70 65       	ori	r23, 0x50	; 80
     c82:	6c 53       	subi	r22, 0x3C	; 60
     c84:	74 75       	andi	r23, 0x54	; 84
     c86:	72 69       	ori	r23, 0x92	; 146
     c88:	6e 67       	ori	r22, 0x7E	; 126
     c8a:	3a 56       	subi	r19, 0x6A	; 106
     c8c:	28 35       	cpi	r18, 0x58	; 88
     c8e:	2c 32       	cpi	r18, 0x2C	; 44
     c90:	29 00       	.word	0x0029	; ????
     c92:	5f 5f       	subi	r21, 0xFF	; 255
     c94:	76 65       	ori	r23, 0x56	; 86
     c96:	63 74       	andi	r22, 0x43	; 67
     c98:	6f 72       	andi	r22, 0x2F	; 47
     c9a:	5f 31       	cpi	r21, 0x1F	; 31
     c9c:	31 3a       	cpi	r19, 0xA1	; 161
     c9e:	46 28       	or	r4, r6
     ca0:	30 2c       	mov	r3, r0
     ca2:	34 35       	cpi	r19, 0x54	; 84
     ca4:	29 00       	.word	0x0029	; ????
     ca6:	69 3a       	cpi	r22, 0xA9	; 169
     ca8:	28 30       	cpi	r18, 0x08	; 8
     caa:	2c 34       	cpi	r18, 0x4C	; 76
     cac:	36 29       	or	r19, r6
     cae:	3d 42       	sbci	r19, 0x2D	; 45
     cb0:	28 30       	cpi	r18, 0x08	; 8
     cb2:	2c 31       	cpi	r18, 0x1C	; 28
     cb4:	29 00       	.word	0x0029	; ????
     cb6:	5f 5f       	subi	r21, 0xFF	; 255
     cb8:	76 65       	ori	r23, 0x56	; 86
     cba:	63 74       	andi	r22, 0x43	; 67
     cbc:	6f 72       	andi	r22, 0x2F	; 47
     cbe:	5f 31       	cpi	r21, 0x1F	; 31
     cc0:	32 3a       	cpi	r19, 0xA2	; 162
     cc2:	46 28       	or	r4, r6
     cc4:	30 2c       	mov	r3, r0
     cc6:	34 35       	cpi	r19, 0x54	; 84
     cc8:	29 00       	.word	0x0029	; ????
     cca:	5f 5f       	subi	r21, 0xFF	; 255
     ccc:	76 65       	ori	r23, 0x56	; 86
     cce:	63 74       	andi	r22, 0x43	; 67
     cd0:	6f 72       	andi	r22, 0x2F	; 47
     cd2:	5f 31       	cpi	r21, 0x1F	; 31
     cd4:	34 3a       	cpi	r19, 0xA4	; 164
     cd6:	46 28       	or	r4, r6
     cd8:	30 2c       	mov	r3, r0
     cda:	34 35       	cpi	r19, 0x54	; 84
     cdc:	29 00       	.word	0x0029	; ????
     cde:	69 6e       	ori	r22, 0xE9	; 233
     ce0:	70 75       	andi	r23, 0x50	; 80
     ce2:	74 3a       	cpi	r23, 0xA4	; 164
     ce4:	72 28       	or	r7, r2
     ce6:	35 2c       	mov	r3, r5
     ce8:	34 29       	or	r19, r4
     cea:	00 75       	andi	r16, 0x50	; 80
     cec:	70 64       	ori	r23, 0x40	; 64
     cee:	61 74       	andi	r22, 0x41	; 65
     cf0:	65 50       	subi	r22, 0x05	; 5
     cf2:	6f 73       	andi	r22, 0x3F	; 63
     cf4:	69 74       	andi	r22, 0x49	; 73
     cf6:	69 6f       	ori	r22, 0xF9	; 249
     cf8:	6e 3a       	cpi	r22, 0xAE	; 174
     cfa:	46 28       	or	r4, r6
     cfc:	30 2c       	mov	r3, r0
     cfe:	34 35       	cpi	r19, 0x54	; 84
     d00:	29 00       	.word	0x0029	; ????
     d02:	75 70       	andi	r23, 0x05	; 5
     d04:	64 61       	ori	r22, 0x14	; 20
     d06:	74 65       	ori	r23, 0x54	; 84
     d08:	3a 50       	subi	r19, 0x0A	; 10
     d0a:	28 35       	cpi	r18, 0x58	; 88
     d0c:	2c 31       	cpi	r18, 0x1C	; 28
     d0e:	29 00       	.word	0x0029	; ????
     d10:	61 6c       	ori	r22, 0xC1	; 193
     d12:	74 65       	ori	r23, 0x54	; 84
     d14:	72 6e       	ori	r23, 0xE2	; 226
     d16:	61 74       	andi	r22, 0x41	; 65
     d18:	65 54       	subi	r22, 0x45	; 69
     d1a:	61 62       	ori	r22, 0x21	; 33
     d1c:	6c 65       	ori	r22, 0x5C	; 92
     d1e:	3a 50       	subi	r19, 0x0A	; 10
     d20:	28 30       	cpi	r18, 0x08	; 8
     d22:	2c 34       	cpi	r18, 0x4C	; 76
     d24:	37 29       	or	r19, r7
     d26:	3d 40       	sbci	r19, 0x0D	; 13
     d28:	73 38       	cpi	r23, 0x83	; 131
     d2a:	3b 2d       	mov	r19, r11
     d2c:	31 36       	cpi	r19, 0x61	; 97
     d2e:	3b 00       	.word	0x003b	; ????
     d30:	68 75       	andi	r22, 0x58	; 88
     d32:	69 73       	andi	r22, 0x39	; 57
     d34:	56 65       	ori	r21, 0x56	; 86
     d36:	72 6c       	ori	r23, 0xC2	; 194
     d38:	69 63       	ori	r22, 0x39	; 57
     d3a:	68 74       	andi	r22, 0x48	; 72
     d3c:	69 6e       	ori	r22, 0xE9	; 233
     d3e:	67 3a       	cpi	r22, 0xA7	; 167
     d40:	46 28       	or	r4, r6
     d42:	30 2c       	mov	r3, r0
     d44:	34 35       	cpi	r19, 0x54	; 84
     d46:	29 00       	.word	0x0029	; ????
     d48:	61 61       	ori	r22, 0x11	; 17
     d4a:	6e 3a       	cpi	r22, 0xAE	; 174
     d4c:	50 28       	or	r5, r0
     d4e:	30 2c       	mov	r3, r0
     d50:	34 37       	cpi	r19, 0x74	; 116
     d52:	29 00       	.word	0x0029	; ????
     d54:	6d 61       	ori	r22, 0x1D	; 29
     d56:	69 6e       	ori	r22, 0xE9	; 233
     d58:	3a 46       	sbci	r19, 0x6A	; 106
     d5a:	28 30       	cpi	r18, 0x08	; 8
     d5c:	2c 34       	cpi	r18, 0x4C	; 76
     d5e:	35 29       	or	r19, r5
     d60:	00 61       	ori	r16, 0x10	; 16
     d62:	64 72       	andi	r22, 0x24	; 36
     d64:	65 73       	andi	r22, 0x35	; 53
     d66:	3a 72       	andi	r19, 0x2A	; 42
     d68:	28 35       	cpi	r18, 0x58	; 88
     d6a:	2c 34       	cpi	r18, 0x4C	; 76
     d6c:	29 00       	.word	0x0029	; ????
     d6e:	64 61       	ori	r22, 0x14	; 20
     d70:	74 61       	ori	r23, 0x14	; 20
     d72:	3a 72       	andi	r19, 0x2A	; 42
     d74:	28 35       	cpi	r18, 0x58	; 88
     d76:	2c 32       	cpi	r18, 0x2C	; 44
     d78:	29 00       	.word	0x0029	; ????
     d7a:	73 74       	andi	r23, 0x43	; 67
     d7c:	61 72       	andi	r22, 0x21	; 33
     d7e:	74 41       	sbci	r23, 0x14	; 20
     d80:	64 72       	andi	r22, 0x24	; 36
     d82:	65 73       	andi	r22, 0x35	; 53
     d84:	3a 72       	andi	r19, 0x2A	; 42
     d86:	28 35       	cpi	r18, 0x58	; 88
     d88:	2c 34       	cpi	r18, 0x4C	; 76
     d8a:	29 00       	.word	0x0029	; ????
     d8c:	74 77       	andi	r23, 0x74	; 116
     d8e:	65 65       	ori	r22, 0x55	; 85
     d90:	64 65       	ori	r22, 0x54	; 84
     d92:	49 6e       	ori	r20, 0xE9	; 233
     d94:	64 65       	ori	r22, 0x54	; 84
     d96:	78 3a       	cpi	r23, 0xA8	; 168
     d98:	72 28       	or	r7, r2
     d9a:	30 2c       	mov	r3, r0
     d9c:	34 37       	cpi	r19, 0x74	; 116
     d9e:	29 00       	.word	0x0029	; ????
     da0:	69 3a       	cpi	r22, 0xA9	; 169
     da2:	72 28       	or	r7, r2
     da4:	30 2c       	mov	r3, r0
     da6:	31 29       	or	r19, r1
     da8:	00 6e       	ori	r16, 0xE0	; 224
     daa:	61 61       	ori	r22, 0x11	; 17
     dac:	72 3a       	cpi	r23, 0xA2	; 162
     dae:	72 28       	or	r7, r2
     db0:	35 2c       	mov	r3, r5
     db2:	33 29       	or	r19, r3
     db4:	00 76       	andi	r16, 0x60	; 96
     db6:	61 6e       	ori	r22, 0xE1	; 225
     db8:	3a 72       	andi	r19, 0x2A	; 42
     dba:	28 35       	cpi	r18, 0x58	; 88
     dbc:	2c 33       	cpi	r18, 0x3C	; 60
     dbe:	29 00       	.word	0x0029	; ????
     dc0:	70 75       	andi	r23, 0x50	; 80
     dc2:	6c 73       	andi	r22, 0x3C	; 60
     dc4:	65 54       	subi	r22, 0x45	; 69
     dc6:	61 62       	ori	r22, 0x21	; 33
     dc8:	65 6c       	ori	r22, 0xC5	; 197
     dca:	3a 47       	sbci	r19, 0x7A	; 122
     dcc:	28 30       	cpi	r18, 0x08	; 8
     dce:	2c 34       	cpi	r18, 0x4C	; 76
     dd0:	38 29       	or	r19, r8
     dd2:	3d 61       	ori	r19, 0x1D	; 29
     dd4:	72 28       	or	r7, r2
     dd6:	30 2c       	mov	r3, r0
     dd8:	34 39       	cpi	r19, 0x94	; 148
     dda:	29 3d       	cpi	r18, 0xD9	; 217
     ddc:	72 28       	or	r7, r2
     dde:	30 2c       	mov	r3, r0
     de0:	34 39       	cpi	r19, 0x94	; 148
     de2:	29 3b       	cpi	r18, 0xB9	; 185
     de4:	30 3b       	cpi	r19, 0xB0	; 176
     de6:	30 31       	cpi	r19, 0x10	; 16
     de8:	37 37       	cpi	r19, 0x77	; 119
     dea:	37 37       	cpi	r19, 0x77	; 119
     dec:	37 3b       	cpi	r19, 0xB7	; 183
     dee:	3b 30       	cpi	r19, 0x0B	; 11
     df0:	3b 36       	cpi	r19, 0x6B	; 107
     df2:	33 3b       	cpi	r19, 0xB3	; 179
     df4:	28 30       	cpi	r18, 0x08	; 8
     df6:	2c 35       	cpi	r18, 0x5C	; 92
     df8:	30 29       	or	r19, r0
     dfa:	3d 61       	ori	r19, 0x1D	; 29
     dfc:	72 28       	or	r7, r2
     dfe:	30 2c       	mov	r3, r0
     e00:	34 39       	cpi	r19, 0x94	; 148
     e02:	29 3b       	cpi	r18, 0xB9	; 185
     e04:	30 3b       	cpi	r19, 0xB0	; 176
     e06:	37 3b       	cpi	r19, 0xB7	; 183
     e08:	28 30       	cpi	r18, 0x08	; 8
     e0a:	2c 35       	cpi	r18, 0x5C	; 92
     e0c:	31 29       	or	r19, r1
     e0e:	3d 6b       	ori	r19, 0xBD	; 189
     e10:	28 35       	cpi	r18, 0x58	; 88
     e12:	2c 32       	cpi	r18, 0x2C	; 44
     e14:	29 00       	.word	0x0029	; ????
     e16:	75 61       	ori	r23, 0x15	; 21
     e18:	72 74       	andi	r23, 0x42	; 66
     e1a:	44 61       	ori	r20, 0x14	; 20
     e1c:	74 61       	ori	r23, 0x14	; 20
     e1e:	31 3a       	cpi	r19, 0xA1	; 161
     e20:	47 28       	or	r4, r7
     e22:	30 2c       	mov	r3, r0
     e24:	35 32       	cpi	r19, 0x25	; 37
     e26:	29 3d       	cpi	r18, 0xD9	; 217
     e28:	42 28       	or	r4, r2
     e2a:	35 2c       	mov	r3, r5
     e2c:	32 29       	or	r19, r2
     e2e:	00 75       	andi	r16, 0x50	; 80
     e30:	61 72       	andi	r22, 0x21	; 33
     e32:	74 44       	sbci	r23, 0x44	; 68
     e34:	61 74       	andi	r22, 0x41	; 65
     e36:	61 32       	cpi	r22, 0x21	; 33
     e38:	3a 47       	sbci	r19, 0x7A	; 122
     e3a:	28 30       	cpi	r18, 0x08	; 8
     e3c:	2c 35       	cpi	r18, 0x5C	; 92
     e3e:	32 29       	or	r19, r2
     e40:	00 62       	ori	r16, 0x20	; 32
     e42:	79 74       	andi	r23, 0x49	; 73
     e44:	65 43       	sbci	r22, 0x35	; 53
     e46:	6f 75       	andi	r22, 0x5F	; 95
     e48:	6e 74       	andi	r22, 0x4E	; 78
     e4a:	3a 47       	sbci	r19, 0x7A	; 122
     e4c:	28 30       	cpi	r18, 0x08	; 8
     e4e:	2c 35       	cpi	r18, 0x5C	; 92
     e50:	32 29       	or	r19, r2
     e52:	00 69       	ori	r16, 0x90	; 144
     e54:	6e 53       	subi	r22, 0x3E	; 62
     e56:	79 6e       	ori	r23, 0xE9	; 233
     e58:	63 3a       	cpi	r22, 0xA3	; 163
     e5a:	47 28       	or	r4, r7
     e5c:	30 2c       	mov	r3, r0
     e5e:	35 33       	cpi	r19, 0x35	; 53
     e60:	29 3d       	cpi	r18, 0xD9	; 217
     e62:	42 28       	or	r4, r2
     e64:	30 2c       	mov	r3, r0
     e66:	34 37       	cpi	r19, 0x74	; 116
     e68:	29 00       	.word	0x0029	; ????
     e6a:	62 72       	andi	r22, 0x22	; 34
     e6c:	75 67       	ori	r23, 0x75	; 117
     e6e:	42 6c       	ori	r20, 0xC2	; 194
     e70:	6f 6b       	ori	r22, 0xBF	; 191
     e72:	44 44       	sbci	r20, 0x44	; 68
     e74:	52 3a       	cpi	r21, 0xA2	; 162
     e76:	47 28       	or	r4, r7
     e78:	30 2c       	mov	r3, r0
     e7a:	35 32       	cpi	r19, 0x25	; 37
     e7c:	29 00       	.word	0x0029	; ????
     e7e:	73 79       	andi	r23, 0x93	; 147
     e80:	6e 63       	ori	r22, 0x3E	; 62
     e82:	43 6f       	ori	r20, 0xF3	; 243
     e84:	75 6e       	ori	r23, 0xE5	; 229
     e86:	74 3a       	cpi	r23, 0xA4	; 164
     e88:	47 28       	or	r4, r7
     e8a:	35 2c       	mov	r3, r5
     e8c:	32 29       	or	r19, r2
     e8e:	00 64       	ori	r16, 0x40	; 64
     e90:	6f 48       	sbci	r22, 0x8F	; 143
     e92:	6f 6d       	ori	r22, 0xDF	; 223
     e94:	69 6e       	ori	r22, 0xE9	; 233
     e96:	67 3a       	cpi	r22, 0xA7	; 167
     e98:	47 28       	or	r4, r7
     e9a:	30 2c       	mov	r3, r0
     e9c:	35 33       	cpi	r19, 0x35	; 53
     e9e:	29 00       	.word	0x0029	; ????
     ea0:	70 75       	andi	r23, 0x50	; 80
     ea2:	6c 73       	andi	r22, 0x3C	; 60
     ea4:	65 42       	sbci	r22, 0x25	; 37
     ea6:	72 65       	ori	r23, 0x52	; 82
     ea8:	65 64       	ori	r22, 0x45	; 69
     eaa:	74 65       	ori	r23, 0x54	; 84
     eac:	43 6f       	ori	r20, 0xF3	; 243
     eae:	75 6e       	ori	r23, 0xE5	; 229
     eb0:	74 3a       	cpi	r23, 0xA4	; 164
     eb2:	47 28       	or	r4, r7
     eb4:	30 2c       	mov	r3, r0
     eb6:	35 32       	cpi	r19, 0x25	; 37
     eb8:	29 00       	.word	0x0029	; ????
     eba:	73 6e       	ori	r23, 0xE3	; 227
     ebc:	65 6c       	ori	r22, 0xC5	; 197
     ebe:	68 65       	ori	r22, 0x58	; 88
     ec0:	69 64       	ori	r22, 0x49	; 73
     ec2:	3a 47       	sbci	r19, 0x7A	; 122
     ec4:	28 30       	cpi	r18, 0x08	; 8
     ec6:	2c 35       	cpi	r18, 0x5C	; 92
     ec8:	32 29       	or	r19, r2
     eca:	00 6d       	ori	r16, 0xD0	; 208
     ecc:	69 64       	ori	r22, 0x49	; 73
     ece:	64 65       	ori	r22, 0x54	; 84
     ed0:	6e 44       	sbci	r22, 0x4E	; 78
     ed2:	65 74       	andi	r22, 0x45	; 69
     ed4:	65 63       	ori	r22, 0x35	; 53
     ed6:	74 69       	ori	r23, 0x94	; 148
     ed8:	65 3a       	cpi	r22, 0xA5	; 165
     eda:	47 28       	or	r4, r7
     edc:	30 2c       	mov	r3, r0
     ede:	35 33       	cpi	r19, 0x35	; 53
     ee0:	29 00       	.word	0x0029	; ????
     ee2:	6d 69       	ori	r22, 0x9D	; 157
     ee4:	64 64       	ori	r22, 0x44	; 68
     ee6:	65 6e       	ori	r22, 0xE5	; 229
     ee8:	44 65       	ori	r20, 0x54	; 84
     eea:	74 65       	ori	r23, 0x54	; 84
     eec:	63 74       	andi	r22, 0x43	; 67
     eee:	65 64       	ori	r22, 0x45	; 69
     ef0:	3a 47       	sbci	r19, 0x7A	; 122
     ef2:	28 30       	cpi	r18, 0x08	; 8
     ef4:	2c 35       	cpi	r18, 0x5C	; 92
     ef6:	33 29       	or	r19, r3
     ef8:	00 62       	ori	r16, 0x20	; 32
     efa:	6c 6f       	ori	r22, 0xFC	; 252
     efc:	6b 4f       	sbci	r22, 0xFB	; 251
     efe:	6e 3a       	cpi	r22, 0xAE	; 174
     f00:	47 28       	or	r4, r7
     f02:	30 2c       	mov	r3, r0
     f04:	35 34       	cpi	r19, 0x45	; 69
     f06:	29 3d       	cpi	r18, 0xD9	; 217
     f08:	42 28       	or	r4, r2
     f0a:	35 2c       	mov	r3, r5
     f0c:	34 29       	or	r19, r4
     f0e:	00 62       	ori	r16, 0x20	; 32
     f10:	6c 6f       	ori	r22, 0xFC	; 252
     f12:	6b 4f       	sbci	r22, 0xFB	; 251
     f14:	66 66       	ori	r22, 0x66	; 102
     f16:	3a 47       	sbci	r19, 0x7A	; 122
     f18:	28 30       	cpi	r18, 0x08	; 8
     f1a:	2c 35       	cpi	r18, 0x5C	; 92
     f1c:	34 29       	or	r19, r4
     f1e:	00 73       	andi	r16, 0x30	; 48
     f20:	74 65       	ori	r23, 0x54	; 84
     f22:	70 54       	subi	r23, 0x40	; 64
     f24:	61 62       	ori	r22, 0x21	; 33
     f26:	65 6c       	ori	r22, 0xC5	; 197
     f28:	52 6f       	ori	r21, 0xF2	; 242
     f2a:	6d 3a       	cpi	r22, 0xAD	; 173
     f2c:	47 28       	or	r4, r7
     f2e:	30 2c       	mov	r3, r0
     f30:	35 35       	cpi	r19, 0x55	; 85
     f32:	29 3d       	cpi	r18, 0xD9	; 217
     f34:	61 72       	andi	r22, 0x21	; 33
     f36:	28 30       	cpi	r18, 0x08	; 8
     f38:	2c 34       	cpi	r18, 0x4C	; 76
     f3a:	39 29       	or	r19, r9
     f3c:	3b 30       	cpi	r19, 0x0B	; 11
     f3e:	3b 34       	cpi	r19, 0x4B	; 75
     f40:	37 3b       	cpi	r19, 0xB7	; 183
     f42:	28 30       	cpi	r18, 0x08	; 8
     f44:	2c 35       	cpi	r18, 0x5C	; 92
     f46:	36 29       	or	r19, r6
     f48:	3d 61       	ori	r19, 0x1D	; 29
     f4a:	72 28       	or	r7, r2
     f4c:	30 2c       	mov	r3, r0
     f4e:	34 39       	cpi	r19, 0x94	; 148
     f50:	29 3b       	cpi	r18, 0xB9	; 185
     f52:	30 3b       	cpi	r19, 0xB0	; 176
     f54:	31 3b       	cpi	r19, 0xB1	; 177
     f56:	28 30       	cpi	r18, 0x08	; 8
     f58:	2c 35       	cpi	r18, 0x5C	; 92
     f5a:	37 29       	or	r19, r7
     f5c:	3d 6b       	ori	r19, 0xBD	; 189
     f5e:	28 35       	cpi	r18, 0x58	; 88
     f60:	2c 33       	cpi	r18, 0x3C	; 60
     f62:	29 00       	.word	0x0029	; ????
     f64:	45 65       	ori	r20, 0x55	; 85
     f66:	70 72       	andi	r23, 0x20	; 32
     f68:	6f 6d       	ori	r22, 0xDF	; 223
     f6a:	54 79       	andi	r21, 0x94	; 148
     f6c:	70 65       	ori	r23, 0x50	; 80
     f6e:	3a 47       	sbci	r19, 0x7A	; 122
     f70:	28 30       	cpi	r18, 0x08	; 8
     f72:	2c 35       	cpi	r18, 0x5C	; 92
     f74:	31 29       	or	r19, r1
     f76:	00 45       	sbci	r16, 0x50	; 80
     f78:	65 70       	andi	r22, 0x05	; 5
     f7a:	72 6f       	ori	r23, 0xF2	; 242
     f7c:	6d 41       	sbci	r22, 0x1D	; 29
     f7e:	64 72       	andi	r22, 0x24	; 36
     f80:	65 73       	andi	r22, 0x35	; 53
     f82:	3a 47       	sbci	r19, 0x7A	; 122
     f84:	28 30       	cpi	r18, 0x08	; 8
     f86:	2c 35       	cpi	r18, 0x5C	; 92
     f88:	38 29       	or	r19, r8
     f8a:	3d 6b       	ori	r19, 0xBD	; 189
     f8c:	28 35       	cpi	r18, 0x58	; 88
     f8e:	2c 34       	cpi	r18, 0x4C	; 76
     f90:	29 00       	.word	0x0029	; ????
     f92:	73 74       	andi	r23, 0x43	; 67
     f94:	65 70       	andi	r22, 0x05	; 5
     f96:	3a 47       	sbci	r19, 0x7A	; 122
     f98:	28 30       	cpi	r18, 0x08	; 8
     f9a:	2c 35       	cpi	r18, 0x5C	; 92
     f9c:	39 29       	or	r19, r9
     f9e:	3d 42       	sbci	r19, 0x2D	; 45
     fa0:	28 35       	cpi	r18, 0x58	; 88
     fa2:	2c 33       	cpi	r18, 0x3C	; 60
     fa4:	29 00       	.word	0x0029	; ????
     fa6:	68 75       	andi	r22, 0x58	; 88
     fa8:	69 64       	ori	r22, 0x49	; 73
     faa:	69 67       	ori	r22, 0x79	; 121
     fac:	65 50       	subi	r22, 0x05	; 5
     fae:	6f 73       	andi	r22, 0x3F	; 63
     fb0:	69 74       	andi	r22, 0x49	; 73
     fb2:	69 65       	ori	r22, 0x59	; 89
     fb4:	3a 47       	sbci	r19, 0x7A	; 122
     fb6:	28 35       	cpi	r18, 0x58	; 88
     fb8:	2c 32       	cpi	r18, 0x2C	; 44
     fba:	29 00       	.word	0x0029	; ????
     fbc:	68 75       	andi	r22, 0x58	; 88
     fbe:	69 64       	ori	r22, 0x49	; 73
     fc0:	69 67       	ori	r22, 0x79	; 121
     fc2:	65 50       	subi	r22, 0x05	; 5
     fc4:	6f 73       	andi	r22, 0x3F	; 63
     fc6:	69 74       	andi	r22, 0x49	; 73
     fc8:	69 74       	andi	r22, 0x49	; 73
     fca:	69 65       	ori	r22, 0x59	; 89
     fcc:	54 77       	andi	r21, 0x74	; 116
     fce:	65 65       	ori	r22, 0x55	; 85
     fd0:	64 65       	ori	r22, 0x54	; 84
     fd2:	49 6e       	ori	r20, 0xE9	; 233
     fd4:	64 65       	ori	r22, 0x54	; 84
     fd6:	78 3a       	cpi	r23, 0xA8	; 168
     fd8:	47 28       	or	r4, r7
     fda:	30 2c       	mov	r3, r0
     fdc:	34 37       	cpi	r19, 0x74	; 116
     fde:	29 00       	.word	0x0029	; ????
     fe0:	73 74       	andi	r23, 0x43	; 67
     fe2:	65 70       	andi	r22, 0x05	; 5
     fe4:	54 61       	ori	r21, 0x14	; 20
     fe6:	62 65       	ori	r22, 0x52	; 82
     fe8:	6c 3a       	cpi	r22, 0xAC	; 172
     fea:	47 28       	or	r4, r7
     fec:	30 2c       	mov	r3, r0
     fee:	36 30       	cpi	r19, 0x06	; 6
     ff0:	29 3d       	cpi	r18, 0xD9	; 217
     ff2:	61 72       	andi	r22, 0x21	; 33
     ff4:	28 30       	cpi	r18, 0x08	; 8
     ff6:	2c 34       	cpi	r18, 0x4C	; 76
     ff8:	39 29       	or	r19, r9
     ffa:	3b 30       	cpi	r19, 0x0B	; 11
     ffc:	3b 34       	cpi	r19, 0x4B	; 75
     ffe:	37 3b       	cpi	r19, 0xB7	; 183
    1000:	28 30       	cpi	r18, 0x08	; 8
    1002:	2c 36       	cpi	r18, 0x6C	; 108
    1004:	31 29       	or	r19, r1
    1006:	3d 61       	ori	r19, 0x1D	; 29
    1008:	72 28       	or	r7, r2
    100a:	30 2c       	mov	r3, r0
    100c:	34 39       	cpi	r19, 0x94	; 148
    100e:	29 3b       	cpi	r18, 0xB9	; 185
    1010:	30 3b       	cpi	r19, 0xB0	; 176
    1012:	31 3b       	cpi	r19, 0xB1	; 177
    1014:	28 35       	cpi	r18, 0x58	; 88
    1016:	2c 33       	cpi	r18, 0x3C	; 60
    1018:	29 00       	.word	0x0029	; ????
    101a:	64 65       	ori	r22, 0x54	; 84
    101c:	63 69       	ori	r22, 0x93	; 147
    101e:	6d 61       	ori	r22, 0x1D	; 29
    1020:	74 65       	ori	r23, 0x54	; 84
    1022:	44 72       	andi	r20, 0x24	; 36
    1024:	65 6d       	ori	r22, 0xD5	; 213
    1026:	70 65       	ori	r23, 0x50	; 80
    1028:	6c 3a       	cpi	r22, 0xAC	; 172
    102a:	47 28       	or	r4, r7
    102c:	35 2c       	mov	r3, r5
    102e:	32 29       	or	r19, r2
    1030:	00 68       	ori	r16, 0x80	; 128
    1032:	75 69       	ori	r23, 0x95	; 149
    1034:	73 44       	sbci	r23, 0x43	; 67
    1036:	65 63       	ori	r22, 0x35	; 53
    1038:	69 6d       	ori	r22, 0xD9	; 217
    103a:	61 74       	andi	r22, 0x41	; 65
    103c:	69 6f       	ori	r22, 0xF9	; 249
    103e:	6e 3a       	cpi	r22, 0xAE	; 174
    1040:	47 28       	or	r4, r7
    1042:	35 2c       	mov	r3, r5
    1044:	32 29       	or	r19, r2
    1046:	00 6e       	ori	r16, 0xE0	; 224
    1048:	65 65       	ori	r22, 0x55	; 85
    104a:	64 73       	andi	r22, 0x34	; 52
    104c:	48 6f       	ori	r20, 0xF8	; 248
    104e:	6d 69       	ori	r22, 0x9D	; 157
    1050:	6e 67       	ori	r22, 0x7E	; 126
    1052:	3a 47       	sbci	r19, 0x7A	; 122
    1054:	28 30       	cpi	r18, 0x08	; 8
    1056:	2c 34       	cpi	r18, 0x4C	; 76
    1058:	37 29       	or	r19, r7
    105a:	00 2f       	mov	r16, r16
    105c:	74 6d       	ori	r23, 0xD4	; 212
    105e:	70 2f       	mov	r23, r16
    1060:	63 63       	ori	r22, 0x33	; 51
    1062:	36 57       	subi	r19, 0x76	; 118
    1064:	42 75       	andi	r20, 0x52	; 82
    1066:	6e 43       	sbci	r22, 0x3E	; 62
    1068:	2e 73       	andi	r18, 0x3E	; 62
    106a:	00 2e       	mov	r0, r16
    106c:	2e 2f       	mov	r18, r30
    106e:	2e 2e       	mov	r2, r30
    1070:	2f 2e       	mov	r2, r31
    1072:	2e 2f       	mov	r18, r30
    1074:	6c 69       	ori	r22, 0x9C	; 156
    1076:	62 63       	ori	r22, 0x32	; 50
    1078:	2f 6d       	ori	r18, 0xDF	; 223
    107a:	69 73       	andi	r22, 0x39	; 57
    107c:	63 2f       	mov	r22, r19
    107e:	65 65       	ori	r22, 0x55	; 85
    1080:	72 64       	ori	r23, 0x42	; 66
    1082:	5f 77       	andi	r21, 0x7F	; 127
    1084:	6f 72       	andi	r22, 0x2F	; 47
    1086:	64 2e       	mov	r6, r20
    1088:	53 00       	.word	0x0053	; ????
    108a:	2f 74       	andi	r18, 0x4F	; 79
    108c:	6d 70       	andi	r22, 0x0D	; 13
    108e:	2f 63       	ori	r18, 0x3F	; 63
    1090:	63 53       	subi	r22, 0x33	; 51
    1092:	67 70       	andi	r22, 0x07	; 7
    1094:	70 6d       	ori	r23, 0xD0	; 208
    1096:	4a 2e       	mov	r4, r26
    1098:	73 00       	.word	0x0073	; ????
    109a:	2e 2e       	mov	r2, r30
    109c:	2f 2e       	mov	r2, r31
    109e:	2e 2f       	mov	r18, r30
    10a0:	2e 2e       	mov	r2, r30
    10a2:	2f 6c       	ori	r18, 0xCF	; 207
    10a4:	69 62       	ori	r22, 0x29	; 41
    10a6:	63 2f       	mov	r22, r19
    10a8:	6d 69       	ori	r22, 0x9D	; 157
    10aa:	73 63       	ori	r23, 0x33	; 51
    10ac:	2f 65       	ori	r18, 0x5F	; 95
    10ae:	65 77       	andi	r22, 0x75	; 117
    10b0:	72 5f       	subi	r23, 0xF2	; 242
    10b2:	77 6f       	ori	r23, 0xF7	; 247
    10b4:	72 64       	ori	r23, 0x42	; 66
    10b6:	2e 53       	subi	r18, 0x3E	; 62
    10b8:	00 2f       	mov	r16, r16
    10ba:	74 6d       	ori	r23, 0xD4	; 212
    10bc:	70 2f       	mov	r23, r16
    10be:	63 63       	ori	r22, 0x33	; 51
    10c0:	72 74       	andi	r23, 0x42	; 66
    10c2:	44 66       	ori	r20, 0x64	; 100
    10c4:	6d 78       	andi	r22, 0x8D	; 141
    10c6:	2e 73       	andi	r18, 0x3E	; 62
    10c8:	00 2e       	mov	r0, r16
    10ca:	2e 2f       	mov	r18, r30
    10cc:	2e 2e       	mov	r2, r30
    10ce:	2f 2e       	mov	r2, r31
    10d0:	2e 2f       	mov	r18, r30
    10d2:	6c 69       	ori	r22, 0x9C	; 156
    10d4:	62 63       	ori	r22, 0x32	; 50
    10d6:	2f 6d       	ori	r18, 0xDF	; 223
    10d8:	69 73       	andi	r22, 0x39	; 57
    10da:	63 2f       	mov	r22, r19
    10dc:	65 65       	ori	r22, 0x55	; 85
    10de:	72 64       	ori	r23, 0x42	; 66
    10e0:	5f 62       	ori	r21, 0x2F	; 47
    10e2:	6c 6f       	ori	r22, 0xFC	; 252
    10e4:	63 6b       	ori	r22, 0xB3	; 179
    10e6:	2e 53       	subi	r18, 0x3E	; 62
    10e8:	00 2f       	mov	r16, r16
    10ea:	74 6d       	ori	r23, 0xD4	; 212
    10ec:	70 2f       	mov	r23, r16
    10ee:	63 63       	ori	r22, 0x33	; 51
    10f0:	61 45       	sbci	r22, 0x51	; 81
    10f2:	68 30       	cpi	r22, 0x08	; 8
    10f4:	38 47       	sbci	r19, 0x78	; 120
    10f6:	2e 73       	andi	r18, 0x3E	; 62
    10f8:	00 2e       	mov	r0, r16
    10fa:	2e 2f       	mov	r18, r30
    10fc:	2e 2e       	mov	r2, r30
    10fe:	2f 2e       	mov	r2, r31
    1100:	2e 2f       	mov	r18, r30
    1102:	6c 69       	ori	r22, 0x9C	; 156
    1104:	62 63       	ori	r22, 0x32	; 50
    1106:	2f 6d       	ori	r18, 0xDF	; 223
    1108:	69 73       	andi	r22, 0x39	; 57
    110a:	63 2f       	mov	r22, r19
    110c:	65 65       	ori	r22, 0x55	; 85
    110e:	77 72       	andi	r23, 0x27	; 39
    1110:	5f 62       	ori	r21, 0x2F	; 47
    1112:	79 74       	andi	r23, 0x49	; 73
    1114:	65 2e       	mov	r6, r21
    1116:	53 00       	.word	0x0053	; ????

Disassembly of section .comment:

00000000 <.comment>:
   0:	47 43       	sbci	r20, 0x37	; 55
   2:	43 3a       	cpi	r20, 0xA3	; 163
   4:	20 28       	or	r2, r0
   6:	47 4e       	sbci	r20, 0xE7	; 231
   8:	55 29       	or	r21, r5
   a:	20 34       	cpi	r18, 0x40	; 64
   c:	2e 38       	cpi	r18, 0x8E	; 142
   e:	2e 32       	cpi	r18, 0x2E	; 46
	...
